Archive member included to satisfy reference by file (symbol)

c:/ti/ccsv8/tools/compiler/gcc-arm-none-eabi-7-2017-q4-major-win32/bin/../lib/gcc/arm-none-eabi/7.2.1/../../../../arm-none-eabi/lib/thumb/v7e-m/fpv4-sp/hard\libc.a(lib_a-exit.o)
                              c:/ti/ccsv8/tools/compiler/gcc-arm-none-eabi-7-2017-q4-major-win32/bin/../lib/gcc/arm-none-eabi/7.2.1/../../../../arm-none-eabi/lib/thumb/v7e-m/fpv4-sp/hard/crt0.o (exit)
c:/ti/ccsv8/tools/compiler/gcc-arm-none-eabi-7-2017-q4-major-win32/bin/../lib/gcc/arm-none-eabi/7.2.1/../../../../arm-none-eabi/lib/thumb/v7e-m/fpv4-sp/hard\libc.a(lib_a-impure.o)
                              c:/ti/ccsv8/tools/compiler/gcc-arm-none-eabi-7-2017-q4-major-win32/bin/../lib/gcc/arm-none-eabi/7.2.1/../../../../arm-none-eabi/lib/thumb/v7e-m/fpv4-sp/hard\libc.a(lib_a-exit.o) (_global_impure_ptr)
c:/ti/ccsv8/tools/compiler/gcc-arm-none-eabi-7-2017-q4-major-win32/bin/../lib/gcc/arm-none-eabi/7.2.1/../../../../arm-none-eabi/lib/thumb/v7e-m/fpv4-sp/hard\libc.a(lib_a-init.o)
                              c:/ti/ccsv8/tools/compiler/gcc-arm-none-eabi-7-2017-q4-major-win32/bin/../lib/gcc/arm-none-eabi/7.2.1/../../../../arm-none-eabi/lib/thumb/v7e-m/fpv4-sp/hard/crt0.o (__libc_init_array)
c:/ti/ccsv8/tools/compiler/gcc-arm-none-eabi-7-2017-q4-major-win32/bin/../lib/gcc/arm-none-eabi/7.2.1/../../../../arm-none-eabi/lib/thumb/v7e-m/fpv4-sp/hard\libc.a(lib_a-memset.o)
                              c:/ti/ccsv8/tools/compiler/gcc-arm-none-eabi-7-2017-q4-major-win32/bin/../lib/gcc/arm-none-eabi/7.2.1/../../../../arm-none-eabi/lib/thumb/v7e-m/fpv4-sp/hard/crt0.o (memset)
c:/ti/ccsv8/tools/compiler/gcc-arm-none-eabi-7-2017-q4-major-win32/bin/../lib/gcc/arm-none-eabi/7.2.1/../../../../arm-none-eabi/lib/thumb/v7e-m/fpv4-sp/hard\libc.a(lib_a-__call_atexit.o)
                              c:/ti/ccsv8/tools/compiler/gcc-arm-none-eabi-7-2017-q4-major-win32/bin/../lib/gcc/arm-none-eabi/7.2.1/../../../../arm-none-eabi/lib/thumb/v7e-m/fpv4-sp/hard\libc.a(lib_a-exit.o) (__call_exitprocs)
c:/ti/ccsv8/tools/compiler/gcc-arm-none-eabi-7-2017-q4-major-win32/bin/../lib/gcc/arm-none-eabi/7.2.1/../../../../arm-none-eabi/lib/thumb/v7e-m/fpv4-sp/hard\libc.a(lib_a-atexit.o)
                              c:/ti/ccsv8/tools/compiler/gcc-arm-none-eabi-7-2017-q4-major-win32/bin/../lib/gcc/arm-none-eabi/7.2.1/../../../../arm-none-eabi/lib/thumb/v7e-m/fpv4-sp/hard\libc.a(lib_a-__call_atexit.o) (atexit)
c:/ti/ccsv8/tools/compiler/gcc-arm-none-eabi-7-2017-q4-major-win32/bin/../lib/gcc/arm-none-eabi/7.2.1/../../../../arm-none-eabi/lib/thumb/v7e-m/fpv4-sp/hard\libc.a(lib_a-fini.o)
                              c:/ti/ccsv8/tools/compiler/gcc-arm-none-eabi-7-2017-q4-major-win32/bin/../lib/gcc/arm-none-eabi/7.2.1/../../../../arm-none-eabi/lib/thumb/v7e-m/fpv4-sp/hard\libc.a(lib_a-__call_atexit.o) (__libc_fini_array)
c:/ti/ccsv8/tools/compiler/gcc-arm-none-eabi-7-2017-q4-major-win32/bin/../lib/gcc/arm-none-eabi/7.2.1/../../../../arm-none-eabi/lib/thumb/v7e-m/fpv4-sp/hard\libc.a(lib_a-lock.o)
                              c:/ti/ccsv8/tools/compiler/gcc-arm-none-eabi-7-2017-q4-major-win32/bin/../lib/gcc/arm-none-eabi/7.2.1/../../../../arm-none-eabi/lib/thumb/v7e-m/fpv4-sp/hard\libc.a(lib_a-__call_atexit.o) (__retarget_lock_acquire_recursive)
c:/ti/ccsv8/tools/compiler/gcc-arm-none-eabi-7-2017-q4-major-win32/bin/../lib/gcc/arm-none-eabi/7.2.1/../../../../arm-none-eabi/lib/thumb/v7e-m/fpv4-sp/hard\libc.a(lib_a-__atexit.o)
                              c:/ti/ccsv8/tools/compiler/gcc-arm-none-eabi-7-2017-q4-major-win32/bin/../lib/gcc/arm-none-eabi/7.2.1/../../../../arm-none-eabi/lib/thumb/v7e-m/fpv4-sp/hard\libc.a(lib_a-atexit.o) (__register_exitproc)
c:/ti/ccsv8/tools/compiler/gcc-arm-none-eabi-7-2017-q4-major-win32/bin/../lib/gcc/arm-none-eabi/7.2.1/../../../../arm-none-eabi/lib/thumb/v7e-m/fpv4-sp/hard\libm.a(lib_a-s_floor.o)
                              ./indM_control_and_RCalculation.o (floor)
c:/ti/ccsv8/tools/compiler/gcc-arm-none-eabi-7-2017-q4-major-win32/bin/../lib/gcc/arm-none-eabi/7.2.1/../../../../arm-none-eabi/lib/thumb/v7e-m/fpv4-sp/hard\libm.a(lib_a-w_pow.o)
                              ./least_square.o (pow)
c:/ti/ccsv8/tools/compiler/gcc-arm-none-eabi-7-2017-q4-major-win32/bin/../lib/gcc/arm-none-eabi/7.2.1/../../../../arm-none-eabi/lib/thumb/v7e-m/fpv4-sp/hard\libm.a(lib_a-e_pow.o)
                              c:/ti/ccsv8/tools/compiler/gcc-arm-none-eabi-7-2017-q4-major-win32/bin/../lib/gcc/arm-none-eabi/7.2.1/../../../../arm-none-eabi/lib/thumb/v7e-m/fpv4-sp/hard\libm.a(lib_a-w_pow.o) (__ieee754_pow)
c:/ti/ccsv8/tools/compiler/gcc-arm-none-eabi-7-2017-q4-major-win32/bin/../lib/gcc/arm-none-eabi/7.2.1/../../../../arm-none-eabi/lib/thumb/v7e-m/fpv4-sp/hard\libm.a(lib_a-e_sqrt.o)
                              c:/ti/ccsv8/tools/compiler/gcc-arm-none-eabi-7-2017-q4-major-win32/bin/../lib/gcc/arm-none-eabi/7.2.1/../../../../arm-none-eabi/lib/thumb/v7e-m/fpv4-sp/hard\libm.a(lib_a-e_pow.o) (__ieee754_sqrt)
c:/ti/ccsv8/tools/compiler/gcc-arm-none-eabi-7-2017-q4-major-win32/bin/../lib/gcc/arm-none-eabi/7.2.1/../../../../arm-none-eabi/lib/thumb/v7e-m/fpv4-sp/hard\libm.a(lib_a-s_fabs.o)
                              c:/ti/ccsv8/tools/compiler/gcc-arm-none-eabi-7-2017-q4-major-win32/bin/../lib/gcc/arm-none-eabi/7.2.1/../../../../arm-none-eabi/lib/thumb/v7e-m/fpv4-sp/hard\libm.a(lib_a-e_pow.o) (fabs)
c:/ti/ccsv8/tools/compiler/gcc-arm-none-eabi-7-2017-q4-major-win32/bin/../lib/gcc/arm-none-eabi/7.2.1/../../../../arm-none-eabi/lib/thumb/v7e-m/fpv4-sp/hard\libm.a(lib_a-s_finite.o)
                              c:/ti/ccsv8/tools/compiler/gcc-arm-none-eabi-7-2017-q4-major-win32/bin/../lib/gcc/arm-none-eabi/7.2.1/../../../../arm-none-eabi/lib/thumb/v7e-m/fpv4-sp/hard\libm.a(lib_a-w_pow.o) (finite)
c:/ti/ccsv8/tools/compiler/gcc-arm-none-eabi-7-2017-q4-major-win32/bin/../lib/gcc/arm-none-eabi/7.2.1/../../../../arm-none-eabi/lib/thumb/v7e-m/fpv4-sp/hard\libm.a(lib_a-s_lib_ver.o)
                              c:/ti/ccsv8/tools/compiler/gcc-arm-none-eabi-7-2017-q4-major-win32/bin/../lib/gcc/arm-none-eabi/7.2.1/../../../../arm-none-eabi/lib/thumb/v7e-m/fpv4-sp/hard\libm.a(lib_a-w_pow.o) (__fdlib_version)
c:/ti/ccsv8/tools/compiler/gcc-arm-none-eabi-7-2017-q4-major-win32/bin/../lib/gcc/arm-none-eabi/7.2.1/../../../../arm-none-eabi/lib/thumb/v7e-m/fpv4-sp/hard\libm.a(lib_a-s_matherr.o)
                              c:/ti/ccsv8/tools/compiler/gcc-arm-none-eabi-7-2017-q4-major-win32/bin/../lib/gcc/arm-none-eabi/7.2.1/../../../../arm-none-eabi/lib/thumb/v7e-m/fpv4-sp/hard\libm.a(lib_a-w_pow.o) (matherr)
c:/ti/ccsv8/tools/compiler/gcc-arm-none-eabi-7-2017-q4-major-win32/bin/../lib/gcc/arm-none-eabi/7.2.1/../../../../arm-none-eabi/lib/thumb/v7e-m/fpv4-sp/hard\libm.a(lib_a-s_nan.o)
                              c:/ti/ccsv8/tools/compiler/gcc-arm-none-eabi-7-2017-q4-major-win32/bin/../lib/gcc/arm-none-eabi/7.2.1/../../../../arm-none-eabi/lib/thumb/v7e-m/fpv4-sp/hard\libm.a(lib_a-e_pow.o) (nan)
c:/ti/ccsv8/tools/compiler/gcc-arm-none-eabi-7-2017-q4-major-win32/bin/../lib/gcc/arm-none-eabi/7.2.1/../../../../arm-none-eabi/lib/thumb/v7e-m/fpv4-sp/hard\libm.a(lib_a-s_rint.o)
                              c:/ti/ccsv8/tools/compiler/gcc-arm-none-eabi-7-2017-q4-major-win32/bin/../lib/gcc/arm-none-eabi/7.2.1/../../../../arm-none-eabi/lib/thumb/v7e-m/fpv4-sp/hard\libm.a(lib_a-w_pow.o) (rint)
c:/ti/ccsv8/tools/compiler/gcc-arm-none-eabi-7-2017-q4-major-win32/bin/../lib/gcc/arm-none-eabi/7.2.1/../../../../arm-none-eabi/lib/thumb/v7e-m/fpv4-sp/hard\libm.a(lib_a-s_scalbn.o)
                              c:/ti/ccsv8/tools/compiler/gcc-arm-none-eabi-7-2017-q4-major-win32/bin/../lib/gcc/arm-none-eabi/7.2.1/../../../../arm-none-eabi/lib/thumb/v7e-m/fpv4-sp/hard\libm.a(lib_a-e_pow.o) (scalbn)
c:/ti/ccsv8/tools/compiler/gcc-arm-none-eabi-7-2017-q4-major-win32/bin/../lib/gcc/arm-none-eabi/7.2.1/../../../../arm-none-eabi/lib/thumb/v7e-m/fpv4-sp/hard\libm.a(lib_a-s_copysign.o)
                              c:/ti/ccsv8/tools/compiler/gcc-arm-none-eabi-7-2017-q4-major-win32/bin/../lib/gcc/arm-none-eabi/7.2.1/../../../../arm-none-eabi/lib/thumb/v7e-m/fpv4-sp/hard\libm.a(lib_a-s_scalbn.o) (copysign)
c:/ti/ccsv8/tools/compiler/gcc-arm-none-eabi-7-2017-q4-major-win32/bin/../lib/gcc/arm-none-eabi/7.2.1/thumb/v7e-m/fpv4-sp/hard\libgcc.a(_arm_addsubdf3.o)
                              c:/ti/ccsv8/tools/compiler/gcc-arm-none-eabi-7-2017-q4-major-win32/bin/../lib/gcc/arm-none-eabi/7.2.1/../../../../arm-none-eabi/lib/thumb/v7e-m/fpv4-sp/hard\libm.a(lib_a-e_pow.o) (__aeabi_dsub)
c:/ti/ccsv8/tools/compiler/gcc-arm-none-eabi-7-2017-q4-major-win32/bin/../lib/gcc/arm-none-eabi/7.2.1/thumb/v7e-m/fpv4-sp/hard\libgcc.a(_arm_muldivdf3.o)
                              ./indM_normal_Close.o (__aeabi_dmul)
c:/ti/ccsv8/tools/compiler/gcc-arm-none-eabi-7-2017-q4-major-win32/bin/../lib/gcc/arm-none-eabi/7.2.1/thumb/v7e-m/fpv4-sp/hard\libgcc.a(_arm_cmpdf2.o)
                              c:/ti/ccsv8/tools/compiler/gcc-arm-none-eabi-7-2017-q4-major-win32/bin/../lib/gcc/arm-none-eabi/7.2.1/../../../../arm-none-eabi/lib/thumb/v7e-m/fpv4-sp/hard\libm.a(lib_a-w_pow.o) (__aeabi_dcmpeq)
c:/ti/ccsv8/tools/compiler/gcc-arm-none-eabi-7-2017-q4-major-win32/bin/../lib/gcc/arm-none-eabi/7.2.1/thumb/v7e-m/fpv4-sp/hard\libgcc.a(_arm_unorddf2.o)
                              c:/ti/ccsv8/tools/compiler/gcc-arm-none-eabi-7-2017-q4-major-win32/bin/../lib/gcc/arm-none-eabi/7.2.1/../../../../arm-none-eabi/lib/thumb/v7e-m/fpv4-sp/hard\libm.a(lib_a-w_pow.o) (__aeabi_dcmpun)
c:/ti/ccsv8/tools/compiler/gcc-arm-none-eabi-7-2017-q4-major-win32/bin/../lib/gcc/arm-none-eabi/7.2.1/thumb/v7e-m/fpv4-sp/hard\libgcc.a(_arm_fixdfsi.o)
                              ./indM_normal_Close.o (__aeabi_d2iz)
c:/ti/ccsv8/tools/compiler/gcc-arm-none-eabi-7-2017-q4-major-win32/bin/../lib/gcc/arm-none-eabi/7.2.1/thumb/v7e-m/fpv4-sp/hard\libgcc.a(_arm_fixunsdfsi.o)
                              ./indM_control_and_RCalculation.o (__aeabi_d2uiz)
c:/ti/ccsv8/tools/compiler/gcc-arm-none-eabi-7-2017-q4-major-win32/bin/../lib/gcc/arm-none-eabi/7.2.1/thumb/v7e-m/fpv4-sp/hard\libgcc.a(_arm_truncdfsf2.o)
                              ./indM_setting.o (__aeabi_d2f)
c:/ti/ccsv8/tools/compiler/gcc-arm-none-eabi-7-2017-q4-major-win32/bin/../lib/gcc/arm-none-eabi/7.2.1/../../../../arm-none-eabi/lib/thumb/v7e-m/fpv4-sp/hard\libc.a(lib_a-errno.o)
                              c:/ti/ccsv8/tools/compiler/gcc-arm-none-eabi-7-2017-q4-major-win32/bin/../lib/gcc/arm-none-eabi/7.2.1/../../../../arm-none-eabi/lib/thumb/v7e-m/fpv4-sp/hard\libm.a(lib_a-w_pow.o) (__errno)
C:/Users/Marco/Desktop/EjemploTivaC2/tiva/TivaWare_C_Series-2.1.4.178/driverlib/gcc\libdriver.a(fpu.o)
                              ./indM_port_configuration.o (FPUEnable)
C:/Users/Marco/Desktop/EjemploTivaC2/tiva/TivaWare_C_Series-2.1.4.178/driverlib/gcc\libdriver.a(gpio.o)
                              ./indM_port_configuration.o (GPIOPadConfigSet)
C:/Users/Marco/Desktop/EjemploTivaC2/tiva/TivaWare_C_Series-2.1.4.178/driverlib/gcc\libdriver.a(interrupt.o)
                              C:/Users/Marco/Desktop/EjemploTivaC2/tiva/TivaWare_C_Series-2.1.4.178/driverlib/gcc\libdriver.a(gpio.o) (IntRegister)
C:/Users/Marco/Desktop/EjemploTivaC2/tiva/TivaWare_C_Series-2.1.4.178/driverlib/gcc\libdriver.a(mpu.o)
                              ./indM_port_configuration.o (MPUEnable)
C:/Users/Marco/Desktop/EjemploTivaC2/tiva/TivaWare_C_Series-2.1.4.178/driverlib/gcc\libdriver.a(ssi.o)
                              ./indM_port_configuration.o (SSIConfigSetExpClk)
C:/Users/Marco/Desktop/EjemploTivaC2/tiva/TivaWare_C_Series-2.1.4.178/driverlib/gcc\libdriver.a(sysctl.o)
                              ./uartstdio.o (SysCtlPeripheralPresent)
C:/Users/Marco/Desktop/EjemploTivaC2/tiva/TivaWare_C_Series-2.1.4.178/driverlib/gcc\libdriver.a(systick.o)
                              ./main.o (SysTickEnable)
C:/Users/Marco/Desktop/EjemploTivaC2/tiva/TivaWare_C_Series-2.1.4.178/driverlib/gcc\libdriver.a(uart.o)
                              ./uartstdio.o (UARTEnable)
C:/Users/Marco/Desktop/EjemploTivaC2/tiva/TivaWare_C_Series-2.1.4.178/driverlib/gcc\libdriver.a(cpu.o)
                              C:/Users/Marco/Desktop/EjemploTivaC2/tiva/TivaWare_C_Series-2.1.4.178/driverlib/gcc\libdriver.a(interrupt.o) (CPUcpsid)
c:/ti/ccsv8/tools/compiler/gcc-arm-none-eabi-7-2017-q4-major-win32/bin/../lib/gcc/arm-none-eabi/7.2.1/../../../../arm-none-eabi/lib/thumb/v7e-m/fpv4-sp/hard\libnosys.a(_exit.o)
                              c:/ti/ccsv8/tools/compiler/gcc-arm-none-eabi-7-2017-q4-major-win32/bin/../lib/gcc/arm-none-eabi/7.2.1/../../../../arm-none-eabi/lib/thumb/v7e-m/fpv4-sp/hard\libc.a(lib_a-exit.o) (_exit)

Allocating common symbols
Common symbol       size              file

t                   0x4               ./least_square.o
A22                 0x4               ./least_square.o
__lock___atexit_recursive_mutex
                    0x1               c:/ti/ccsv8/tools/compiler/gcc-arm-none-eabi-7-2017-q4-major-win32/bin/../lib/gcc/arm-none-eabi/7.2.1/../../../../arm-none-eabi/lib/thumb/v7e-m/fpv4-sp/hard\libc.a(lib_a-lock.o)
__lock___arc4random_mutex
                    0x1               c:/ti/ccsv8/tools/compiler/gcc-arm-none-eabi-7-2017-q4-major-win32/bin/../lib/gcc/arm-none-eabi/7.2.1/../../../../arm-none-eabi/lib/thumb/v7e-m/fpv4-sp/hard\libc.a(lib_a-lock.o)
det                 0x4               ./least_square.o
L_i_Ind             0x258             ./indM_data_Processing.o
V_R                 0x4               ./indM_control_and_RCalculation.o
__lock___env_recursive_mutex
                    0x1               c:/ti/ccsv8/tools/compiler/gcc-arm-none-eabi-7-2017-q4-major-win32/bin/../lib/gcc/arm-none-eabi/7.2.1/../../../../arm-none-eabi/lib/thumb/v7e-m/fpv4-sp/hard\libc.a(lib_a-lock.o)
__lock___sinit_recursive_mutex
                    0x1               c:/ti/ccsv8/tools/compiler/gcc-arm-none-eabi-7-2017-q4-major-win32/bin/../lib/gcc/arm-none-eabi/7.2.1/../../../../arm-none-eabi/lib/thumb/v7e-m/fpv4-sp/hard\libc.a(lib_a-lock.o)
runs_R              0x4               ./indM_control_and_RCalculation.o
__lock___malloc_recursive_mutex
                    0x1               c:/ti/ccsv8/tools/compiler/gcc-arm-none-eabi-7-2017-q4-major-win32/bin/../lib/gcc/arm-none-eabi/7.2.1/../../../../arm-none-eabi/lib/thumb/v7e-m/fpv4-sp/hard\libc.a(lib_a-lock.o)
samp_R              0x1068            ./main.o
samp_L              0x1068            ./main.o
I_R                 0x1068            ./indM_data_Processing.o
current             0x12c             ./indM_data_Processing.o
A12                 0x4               ./least_square.o
V_L1                0x4               ./indM_control_and_RCalculation.o
V_L                 0x1068            ./indM_data_Processing.o
L_i_Current         0x258             ./indM_data_Processing.o
counter             0x4               ./indM_get_Data_Array.o
B2                  0x4               ./least_square.o
data                0x8               ./main.o
Gain_L              0x4               ./main.o
result              0x4               ./least_square.o
error               0x8               ./indM_control_and_RCalculation.o
offset              0x8               ./main.o
I                   0x4               ./least_square.o
inductance          0x12c             ./indM_data_Processing.o
__lock___at_quick_exit_mutex
                    0x1               c:/ti/ccsv8/tools/compiler/gcc-arm-none-eabi-7-2017-q4-major-win32/bin/../lib/gcc/arm-none-eabi/7.2.1/../../../../arm-none-eabi/lib/thumb/v7e-m/fpv4-sp/hard\libc.a(lib_a-lock.o)
A11                 0x4               ./least_square.o
ls                  0x50              ./main.o
B1                  0x4               ./least_square.o
v_gate_k            0x4               ./indM_control_and_RCalculation.o
__lock___dd_hash_mutex
                    0x1               c:/ti/ccsv8/tools/compiler/gcc-arm-none-eabi-7-2017-q4-major-win32/bin/../lib/gcc/arm-none-eabi/7.2.1/../../../../arm-none-eabi/lib/thumb/v7e-m/fpv4-sp/hard\libc.a(lib_a-lock.o)
__lock___tz_mutex   0x1               c:/ti/ccsv8/tools/compiler/gcc-arm-none-eabi-7-2017-q4-major-win32/bin/../lib/gcc/arm-none-eabi/7.2.1/../../../../arm-none-eabi/lib/thumb/v7e-m/fpv4-sp/hard\libc.a(lib_a-lock.o)
u                   0x8               ./indM_control_and_RCalculation.o
Gain_R              0x4               ./main.o
__lock___sfp_recursive_mutex
                    0x1               c:/ti/ccsv8/tools/compiler/gcc-arm-none-eabi-7-2017-q4-major-win32/bin/../lib/gcc/arm-none-eabi/7.2.1/../../../../arm-none-eabi/lib/thumb/v7e-m/fpv4-sp/hard\libc.a(lib_a-lock.o)

Discarded input sections

 .debug_frame   0x00000000       0x28 c:/ti/ccsv8/tools/compiler/gcc-arm-none-eabi-7-2017-q4-major-win32/bin/../lib/gcc/arm-none-eabi/7.2.1/../../../../arm-none-eabi/lib/thumb/v7e-m/fpv4-sp/hard\libc.a(lib_a-exit.o)
 .ARM.attributes
                0x00000000       0x34 c:/ti/ccsv8/tools/compiler/gcc-arm-none-eabi-7-2017-q4-major-win32/bin/../lib/gcc/arm-none-eabi/7.2.1/../../../../arm-none-eabi/lib/thumb/v7e-m/fpv4-sp/hard\libc.a(lib_a-exit.o)
 .ARM.attributes
                0x00000000       0x34 c:/ti/ccsv8/tools/compiler/gcc-arm-none-eabi-7-2017-q4-major-win32/bin/../lib/gcc/arm-none-eabi/7.2.1/../../../../arm-none-eabi/lib/thumb/v7e-m/fpv4-sp/hard\libc.a(lib_a-impure.o)
 .debug_frame   0x00000000       0x2c c:/ti/ccsv8/tools/compiler/gcc-arm-none-eabi-7-2017-q4-major-win32/bin/../lib/gcc/arm-none-eabi/7.2.1/../../../../arm-none-eabi/lib/thumb/v7e-m/fpv4-sp/hard\libc.a(lib_a-init.o)
 .ARM.attributes
                0x00000000       0x34 c:/ti/ccsv8/tools/compiler/gcc-arm-none-eabi-7-2017-q4-major-win32/bin/../lib/gcc/arm-none-eabi/7.2.1/../../../../arm-none-eabi/lib/thumb/v7e-m/fpv4-sp/hard\libc.a(lib_a-init.o)
 .debug_frame   0x00000000       0x38 c:/ti/ccsv8/tools/compiler/gcc-arm-none-eabi-7-2017-q4-major-win32/bin/../lib/gcc/arm-none-eabi/7.2.1/../../../../arm-none-eabi/lib/thumb/v7e-m/fpv4-sp/hard\libc.a(lib_a-memset.o)
 .ARM.attributes
                0x00000000       0x34 c:/ti/ccsv8/tools/compiler/gcc-arm-none-eabi-7-2017-q4-major-win32/bin/../lib/gcc/arm-none-eabi/7.2.1/../../../../arm-none-eabi/lib/thumb/v7e-m/fpv4-sp/hard\libc.a(lib_a-memset.o)
 .debug_frame   0x00000000       0x5c c:/ti/ccsv8/tools/compiler/gcc-arm-none-eabi-7-2017-q4-major-win32/bin/../lib/gcc/arm-none-eabi/7.2.1/../../../../arm-none-eabi/lib/thumb/v7e-m/fpv4-sp/hard\libc.a(lib_a-__call_atexit.o)
 .ARM.attributes
                0x00000000       0x34 c:/ti/ccsv8/tools/compiler/gcc-arm-none-eabi-7-2017-q4-major-win32/bin/../lib/gcc/arm-none-eabi/7.2.1/../../../../arm-none-eabi/lib/thumb/v7e-m/fpv4-sp/hard\libc.a(lib_a-__call_atexit.o)
 .debug_frame   0x00000000       0x20 c:/ti/ccsv8/tools/compiler/gcc-arm-none-eabi-7-2017-q4-major-win32/bin/../lib/gcc/arm-none-eabi/7.2.1/../../../../arm-none-eabi/lib/thumb/v7e-m/fpv4-sp/hard\libc.a(lib_a-atexit.o)
 .ARM.attributes
                0x00000000       0x34 c:/ti/ccsv8/tools/compiler/gcc-arm-none-eabi-7-2017-q4-major-win32/bin/../lib/gcc/arm-none-eabi/7.2.1/../../../../arm-none-eabi/lib/thumb/v7e-m/fpv4-sp/hard\libc.a(lib_a-atexit.o)
 .debug_frame   0x00000000       0x34 c:/ti/ccsv8/tools/compiler/gcc-arm-none-eabi-7-2017-q4-major-win32/bin/../lib/gcc/arm-none-eabi/7.2.1/../../../../arm-none-eabi/lib/thumb/v7e-m/fpv4-sp/hard\libc.a(lib_a-fini.o)
 .ARM.attributes
                0x00000000       0x34 c:/ti/ccsv8/tools/compiler/gcc-arm-none-eabi-7-2017-q4-major-win32/bin/../lib/gcc/arm-none-eabi/7.2.1/../../../../arm-none-eabi/lib/thumb/v7e-m/fpv4-sp/hard\libc.a(lib_a-fini.o)
 .debug_frame   0x00000000       0xb0 c:/ti/ccsv8/tools/compiler/gcc-arm-none-eabi-7-2017-q4-major-win32/bin/../lib/gcc/arm-none-eabi/7.2.1/../../../../arm-none-eabi/lib/thumb/v7e-m/fpv4-sp/hard\libc.a(lib_a-lock.o)
 .ARM.attributes
                0x00000000       0x34 c:/ti/ccsv8/tools/compiler/gcc-arm-none-eabi-7-2017-q4-major-win32/bin/../lib/gcc/arm-none-eabi/7.2.1/../../../../arm-none-eabi/lib/thumb/v7e-m/fpv4-sp/hard\libc.a(lib_a-lock.o)
 .debug_frame   0x00000000       0x34 c:/ti/ccsv8/tools/compiler/gcc-arm-none-eabi-7-2017-q4-major-win32/bin/../lib/gcc/arm-none-eabi/7.2.1/../../../../arm-none-eabi/lib/thumb/v7e-m/fpv4-sp/hard\libc.a(lib_a-__atexit.o)
 .ARM.attributes
                0x00000000       0x34 c:/ti/ccsv8/tools/compiler/gcc-arm-none-eabi-7-2017-q4-major-win32/bin/../lib/gcc/arm-none-eabi/7.2.1/../../../../arm-none-eabi/lib/thumb/v7e-m/fpv4-sp/hard\libc.a(lib_a-__atexit.o)
 .debug_frame   0x00000000       0x30 c:/ti/ccsv8/tools/compiler/gcc-arm-none-eabi-7-2017-q4-major-win32/bin/../lib/gcc/arm-none-eabi/7.2.1/../../../../arm-none-eabi/lib/thumb/v7e-m/fpv4-sp/hard\libm.a(lib_a-s_floor.o)
 .ARM.attributes
                0x00000000       0x34 c:/ti/ccsv8/tools/compiler/gcc-arm-none-eabi-7-2017-q4-major-win32/bin/../lib/gcc/arm-none-eabi/7.2.1/../../../../arm-none-eabi/lib/thumb/v7e-m/fpv4-sp/hard\libm.a(lib_a-s_floor.o)
 .debug_frame   0x00000000       0x50 c:/ti/ccsv8/tools/compiler/gcc-arm-none-eabi-7-2017-q4-major-win32/bin/../lib/gcc/arm-none-eabi/7.2.1/../../../../arm-none-eabi/lib/thumb/v7e-m/fpv4-sp/hard\libm.a(lib_a-w_pow.o)
 .ARM.attributes
                0x00000000       0x34 c:/ti/ccsv8/tools/compiler/gcc-arm-none-eabi-7-2017-q4-major-win32/bin/../lib/gcc/arm-none-eabi/7.2.1/../../../../arm-none-eabi/lib/thumb/v7e-m/fpv4-sp/hard\libm.a(lib_a-w_pow.o)
 .debug_frame   0x00000000       0x68 c:/ti/ccsv8/tools/compiler/gcc-arm-none-eabi-7-2017-q4-major-win32/bin/../lib/gcc/arm-none-eabi/7.2.1/../../../../arm-none-eabi/lib/thumb/v7e-m/fpv4-sp/hard\libm.a(lib_a-e_pow.o)
 .ARM.attributes
                0x00000000       0x34 c:/ti/ccsv8/tools/compiler/gcc-arm-none-eabi-7-2017-q4-major-win32/bin/../lib/gcc/arm-none-eabi/7.2.1/../../../../arm-none-eabi/lib/thumb/v7e-m/fpv4-sp/hard\libm.a(lib_a-e_pow.o)
 .debug_frame   0x00000000       0x30 c:/ti/ccsv8/tools/compiler/gcc-arm-none-eabi-7-2017-q4-major-win32/bin/../lib/gcc/arm-none-eabi/7.2.1/../../../../arm-none-eabi/lib/thumb/v7e-m/fpv4-sp/hard\libm.a(lib_a-e_sqrt.o)
 .ARM.attributes
                0x00000000       0x34 c:/ti/ccsv8/tools/compiler/gcc-arm-none-eabi-7-2017-q4-major-win32/bin/../lib/gcc/arm-none-eabi/7.2.1/../../../../arm-none-eabi/lib/thumb/v7e-m/fpv4-sp/hard\libm.a(lib_a-e_sqrt.o)
 .debug_frame   0x00000000       0x20 c:/ti/ccsv8/tools/compiler/gcc-arm-none-eabi-7-2017-q4-major-win32/bin/../lib/gcc/arm-none-eabi/7.2.1/../../../../arm-none-eabi/lib/thumb/v7e-m/fpv4-sp/hard\libm.a(lib_a-s_fabs.o)
 .ARM.attributes
                0x00000000       0x34 c:/ti/ccsv8/tools/compiler/gcc-arm-none-eabi-7-2017-q4-major-win32/bin/../lib/gcc/arm-none-eabi/7.2.1/../../../../arm-none-eabi/lib/thumb/v7e-m/fpv4-sp/hard\libm.a(lib_a-s_fabs.o)
 .debug_frame   0x00000000       0x20 c:/ti/ccsv8/tools/compiler/gcc-arm-none-eabi-7-2017-q4-major-win32/bin/../lib/gcc/arm-none-eabi/7.2.1/../../../../arm-none-eabi/lib/thumb/v7e-m/fpv4-sp/hard\libm.a(lib_a-s_finite.o)
 .ARM.attributes
                0x00000000       0x34 c:/ti/ccsv8/tools/compiler/gcc-arm-none-eabi-7-2017-q4-major-win32/bin/../lib/gcc/arm-none-eabi/7.2.1/../../../../arm-none-eabi/lib/thumb/v7e-m/fpv4-sp/hard\libm.a(lib_a-s_finite.o)
 .ARM.attributes
                0x00000000       0x34 c:/ti/ccsv8/tools/compiler/gcc-arm-none-eabi-7-2017-q4-major-win32/bin/../lib/gcc/arm-none-eabi/7.2.1/../../../../arm-none-eabi/lib/thumb/v7e-m/fpv4-sp/hard\libm.a(lib_a-s_lib_ver.o)
 .debug_frame   0x00000000       0x20 c:/ti/ccsv8/tools/compiler/gcc-arm-none-eabi-7-2017-q4-major-win32/bin/../lib/gcc/arm-none-eabi/7.2.1/../../../../arm-none-eabi/lib/thumb/v7e-m/fpv4-sp/hard\libm.a(lib_a-s_matherr.o)
 .ARM.attributes
                0x00000000       0x34 c:/ti/ccsv8/tools/compiler/gcc-arm-none-eabi-7-2017-q4-major-win32/bin/../lib/gcc/arm-none-eabi/7.2.1/../../../../arm-none-eabi/lib/thumb/v7e-m/fpv4-sp/hard\libm.a(lib_a-s_matherr.o)
 .debug_frame   0x00000000       0x20 c:/ti/ccsv8/tools/compiler/gcc-arm-none-eabi-7-2017-q4-major-win32/bin/../lib/gcc/arm-none-eabi/7.2.1/../../../../arm-none-eabi/lib/thumb/v7e-m/fpv4-sp/hard\libm.a(lib_a-s_nan.o)
 .ARM.attributes
                0x00000000       0x34 c:/ti/ccsv8/tools/compiler/gcc-arm-none-eabi-7-2017-q4-major-win32/bin/../lib/gcc/arm-none-eabi/7.2.1/../../../../arm-none-eabi/lib/thumb/v7e-m/fpv4-sp/hard\libm.a(lib_a-s_nan.o)
 .debug_frame   0x00000000       0x38 c:/ti/ccsv8/tools/compiler/gcc-arm-none-eabi-7-2017-q4-major-win32/bin/../lib/gcc/arm-none-eabi/7.2.1/../../../../arm-none-eabi/lib/thumb/v7e-m/fpv4-sp/hard\libm.a(lib_a-s_rint.o)
 .ARM.attributes
                0x00000000       0x34 c:/ti/ccsv8/tools/compiler/gcc-arm-none-eabi-7-2017-q4-major-win32/bin/../lib/gcc/arm-none-eabi/7.2.1/../../../../arm-none-eabi/lib/thumb/v7e-m/fpv4-sp/hard\libm.a(lib_a-s_rint.o)
 .debug_frame   0x00000000       0x2c c:/ti/ccsv8/tools/compiler/gcc-arm-none-eabi-7-2017-q4-major-win32/bin/../lib/gcc/arm-none-eabi/7.2.1/../../../../arm-none-eabi/lib/thumb/v7e-m/fpv4-sp/hard\libm.a(lib_a-s_scalbn.o)
 .ARM.attributes
                0x00000000       0x34 c:/ti/ccsv8/tools/compiler/gcc-arm-none-eabi-7-2017-q4-major-win32/bin/../lib/gcc/arm-none-eabi/7.2.1/../../../../arm-none-eabi/lib/thumb/v7e-m/fpv4-sp/hard\libm.a(lib_a-s_scalbn.o)
 .debug_frame   0x00000000       0x20 c:/ti/ccsv8/tools/compiler/gcc-arm-none-eabi-7-2017-q4-major-win32/bin/../lib/gcc/arm-none-eabi/7.2.1/../../../../arm-none-eabi/lib/thumb/v7e-m/fpv4-sp/hard\libm.a(lib_a-s_copysign.o)
 .ARM.attributes
                0x00000000       0x34 c:/ti/ccsv8/tools/compiler/gcc-arm-none-eabi-7-2017-q4-major-win32/bin/../lib/gcc/arm-none-eabi/7.2.1/../../../../arm-none-eabi/lib/thumb/v7e-m/fpv4-sp/hard\libm.a(lib_a-s_copysign.o)
 .debug_frame   0x00000000       0xac c:/ti/ccsv8/tools/compiler/gcc-arm-none-eabi-7-2017-q4-major-win32/bin/../lib/gcc/arm-none-eabi/7.2.1/thumb/v7e-m/fpv4-sp/hard\libgcc.a(_arm_addsubdf3.o)
 .ARM.attributes
                0x00000000       0x22 c:/ti/ccsv8/tools/compiler/gcc-arm-none-eabi-7-2017-q4-major-win32/bin/../lib/gcc/arm-none-eabi/7.2.1/thumb/v7e-m/fpv4-sp/hard\libgcc.a(_arm_addsubdf3.o)
 .debug_frame   0x00000000       0x50 c:/ti/ccsv8/tools/compiler/gcc-arm-none-eabi-7-2017-q4-major-win32/bin/../lib/gcc/arm-none-eabi/7.2.1/thumb/v7e-m/fpv4-sp/hard\libgcc.a(_arm_muldivdf3.o)
 .ARM.attributes
                0x00000000       0x22 c:/ti/ccsv8/tools/compiler/gcc-arm-none-eabi-7-2017-q4-major-win32/bin/../lib/gcc/arm-none-eabi/7.2.1/thumb/v7e-m/fpv4-sp/hard\libgcc.a(_arm_muldivdf3.o)
 .debug_frame   0x00000000       0xc4 c:/ti/ccsv8/tools/compiler/gcc-arm-none-eabi-7-2017-q4-major-win32/bin/../lib/gcc/arm-none-eabi/7.2.1/thumb/v7e-m/fpv4-sp/hard\libgcc.a(_arm_cmpdf2.o)
 .ARM.attributes
                0x00000000       0x22 c:/ti/ccsv8/tools/compiler/gcc-arm-none-eabi-7-2017-q4-major-win32/bin/../lib/gcc/arm-none-eabi/7.2.1/thumb/v7e-m/fpv4-sp/hard\libgcc.a(_arm_cmpdf2.o)
 .debug_frame   0x00000000       0x20 c:/ti/ccsv8/tools/compiler/gcc-arm-none-eabi-7-2017-q4-major-win32/bin/../lib/gcc/arm-none-eabi/7.2.1/thumb/v7e-m/fpv4-sp/hard\libgcc.a(_arm_unorddf2.o)
 .ARM.attributes
                0x00000000       0x22 c:/ti/ccsv8/tools/compiler/gcc-arm-none-eabi-7-2017-q4-major-win32/bin/../lib/gcc/arm-none-eabi/7.2.1/thumb/v7e-m/fpv4-sp/hard\libgcc.a(_arm_unorddf2.o)
 .debug_frame   0x00000000       0x24 c:/ti/ccsv8/tools/compiler/gcc-arm-none-eabi-7-2017-q4-major-win32/bin/../lib/gcc/arm-none-eabi/7.2.1/thumb/v7e-m/fpv4-sp/hard\libgcc.a(_arm_fixdfsi.o)
 .ARM.attributes
                0x00000000       0x22 c:/ti/ccsv8/tools/compiler/gcc-arm-none-eabi-7-2017-q4-major-win32/bin/../lib/gcc/arm-none-eabi/7.2.1/thumb/v7e-m/fpv4-sp/hard\libgcc.a(_arm_fixdfsi.o)
 .debug_frame   0x00000000       0x24 c:/ti/ccsv8/tools/compiler/gcc-arm-none-eabi-7-2017-q4-major-win32/bin/../lib/gcc/arm-none-eabi/7.2.1/thumb/v7e-m/fpv4-sp/hard\libgcc.a(_arm_fixunsdfsi.o)
 .ARM.attributes
                0x00000000       0x22 c:/ti/ccsv8/tools/compiler/gcc-arm-none-eabi-7-2017-q4-major-win32/bin/../lib/gcc/arm-none-eabi/7.2.1/thumb/v7e-m/fpv4-sp/hard\libgcc.a(_arm_fixunsdfsi.o)
 .debug_frame   0x00000000       0x24 c:/ti/ccsv8/tools/compiler/gcc-arm-none-eabi-7-2017-q4-major-win32/bin/../lib/gcc/arm-none-eabi/7.2.1/thumb/v7e-m/fpv4-sp/hard\libgcc.a(_arm_truncdfsf2.o)
 .ARM.attributes
                0x00000000       0x22 c:/ti/ccsv8/tools/compiler/gcc-arm-none-eabi-7-2017-q4-major-win32/bin/../lib/gcc/arm-none-eabi/7.2.1/thumb/v7e-m/fpv4-sp/hard\libgcc.a(_arm_truncdfsf2.o)

Memory Configuration

Name             Origin             Length             Attributes
ROM              0x00000000         0x00040000         xr
RAM              0x20000000         0x00008000         xrw
*default*        0x00000000         0xffffffff

Linker script and memory map

LOAD c:/ti/ccsv8/tools/compiler/gcc-arm-none-eabi-7-2017-q4-major-win32/bin/../lib/gcc/arm-none-eabi/7.2.1/thumb/v7e-m/fpv4-sp/hard/crti.o
LOAD c:/ti/ccsv8/tools/compiler/gcc-arm-none-eabi-7-2017-q4-major-win32/bin/../lib/gcc/arm-none-eabi/7.2.1/thumb/v7e-m/fpv4-sp/hard/crtbegin.o
LOAD c:/ti/ccsv8/tools/compiler/gcc-arm-none-eabi-7-2017-q4-major-win32/bin/../lib/gcc/arm-none-eabi/7.2.1/../../../../arm-none-eabi/lib/thumb/v7e-m/fpv4-sp/hard/crt0.o
LOAD ./Control_Res.o
LOAD ./Local_Average.o
LOAD ./bsp.o
LOAD ./indM_control_and_RCalculation.o
LOAD ./indM_data_Processing.o
LOAD ./indM_get_Data.o
LOAD ./indM_get_Data_Array.o
LOAD ./indM_normal_Close.o
LOAD ./indM_port_configuration.o
LOAD ./indM_res_Closing.o
LOAD ./indM_res_Init.o
LOAD ./indM_safe_Close.o
LOAD ./indM_set_Time_Reference.o
LOAD ./indM_setting.o
LOAD ./indM_uART_routine.o
LOAD ./least_square.o
LOAD ./main.o
LOAD ./startup_tm4c_gnu.o
LOAD ./uartstdio.o
LOAD ./src/sc_timer_service.o
LOAD ./src-gen/indM.o
                0x00000200                STACK_SIZE = 0x200
                0x00000000                HEAP_SIZE = 0x0

.isr_vector     0x00000000      0x26c
 *(.isr_vector)
 .isr_vector    0x00000000      0x26c ./startup_tm4c_gnu.o
                0x00000000                g_pfnVectors
                0x0000026c                . = ALIGN (0x4)

.eh_frame       0x0000026c        0x4
 .eh_frame      0x0000026c        0x0 c:/ti/ccsv8/tools/compiler/gcc-arm-none-eabi-7-2017-q4-major-win32/bin/../lib/gcc/arm-none-eabi/7.2.1/thumb/v7e-m/fpv4-sp/hard/crtbegin.o
 .eh_frame      0x0000026c        0x4 c:/ti/ccsv8/tools/compiler/gcc-arm-none-eabi-7-2017-q4-major-win32/bin/../lib/gcc/arm-none-eabi/7.2.1/thumb/v7e-m/fpv4-sp/hard/crtend.o

.ARM.extab      0x00000270        0x0
 .ARM.extab     0x00000270        0x0 c:/ti/ccsv8/tools/compiler/gcc-arm-none-eabi-7-2017-q4-major-win32/bin/../lib/gcc/arm-none-eabi/7.2.1/../../../../arm-none-eabi/lib/thumb/v7e-m/fpv4-sp/hard/crt0.o

.ARM.exidx      0x00000270        0x8
 .ARM.exidx     0x00000270        0x8 c:/ti/ccsv8/tools/compiler/gcc-arm-none-eabi-7-2017-q4-major-win32/bin/../lib/gcc/arm-none-eabi/7.2.1/../../../../arm-none-eabi/lib/thumb/v7e-m/fpv4-sp/hard/crt0.o

.text           0x00000278     0x6840
                0x00000278                . = ALIGN (0x4)
 *(.text)
 .text          0x00000278        0x0 c:/ti/ccsv8/tools/compiler/gcc-arm-none-eabi-7-2017-q4-major-win32/bin/../lib/gcc/arm-none-eabi/7.2.1/thumb/v7e-m/fpv4-sp/hard/crti.o
 .text          0x00000278       0x40 c:/ti/ccsv8/tools/compiler/gcc-arm-none-eabi-7-2017-q4-major-win32/bin/../lib/gcc/arm-none-eabi/7.2.1/thumb/v7e-m/fpv4-sp/hard/crtbegin.o
 .text          0x000002b8       0x74 c:/ti/ccsv8/tools/compiler/gcc-arm-none-eabi-7-2017-q4-major-win32/bin/../lib/gcc/arm-none-eabi/7.2.1/../../../../arm-none-eabi/lib/thumb/v7e-m/fpv4-sp/hard/crt0.o
                0x000002b8                _start
                0x000002b8                _mainCRTStartup
 .text          0x0000032c        0x0 ./Control_Res.o
 .text          0x0000032c        0x0 ./Local_Average.o
 .text          0x0000032c        0x0 ./bsp.o
 .text          0x0000032c        0x0 ./indM_control_and_RCalculation.o
 .text          0x0000032c        0x0 ./indM_data_Processing.o
 .text          0x0000032c        0x0 ./indM_get_Data.o
 .text          0x0000032c        0x0 ./indM_get_Data_Array.o
 .text          0x0000032c        0x0 ./indM_normal_Close.o
 .text          0x0000032c        0x0 ./indM_port_configuration.o
 .text          0x0000032c        0x0 ./indM_res_Closing.o
 .text          0x0000032c        0x0 ./indM_res_Init.o
 .text          0x0000032c        0x0 ./indM_safe_Close.o
 .text          0x0000032c        0x0 ./indM_set_Time_Reference.o
 .text          0x0000032c        0x0 ./indM_setting.o
 .text          0x0000032c        0x0 ./indM_uART_routine.o
 .text          0x0000032c        0x0 ./least_square.o
 .text          0x0000032c        0x0 ./main.o
 .text          0x0000032c        0x0 ./startup_tm4c_gnu.o
 .text          0x0000032c        0x0 ./uartstdio.o
 .text          0x0000032c        0x0 ./src/sc_timer_service.o
 .text          0x0000032c        0x0 ./src-gen/indM.o
 .text          0x0000032c        0x0 c:/ti/ccsv8/tools/compiler/gcc-arm-none-eabi-7-2017-q4-major-win32/bin/../lib/gcc/arm-none-eabi/7.2.1/../../../../arm-none-eabi/lib/thumb/v7e-m/fpv4-sp/hard\libc.a(lib_a-exit.o)
 .text          0x0000032c        0x0 c:/ti/ccsv8/tools/compiler/gcc-arm-none-eabi-7-2017-q4-major-win32/bin/../lib/gcc/arm-none-eabi/7.2.1/../../../../arm-none-eabi/lib/thumb/v7e-m/fpv4-sp/hard\libc.a(lib_a-impure.o)
 .text          0x0000032c        0x0 c:/ti/ccsv8/tools/compiler/gcc-arm-none-eabi-7-2017-q4-major-win32/bin/../lib/gcc/arm-none-eabi/7.2.1/../../../../arm-none-eabi/lib/thumb/v7e-m/fpv4-sp/hard\libc.a(lib_a-init.o)
 .text          0x0000032c        0x0 c:/ti/ccsv8/tools/compiler/gcc-arm-none-eabi-7-2017-q4-major-win32/bin/../lib/gcc/arm-none-eabi/7.2.1/../../../../arm-none-eabi/lib/thumb/v7e-m/fpv4-sp/hard\libc.a(lib_a-memset.o)
 .text          0x0000032c        0x0 c:/ti/ccsv8/tools/compiler/gcc-arm-none-eabi-7-2017-q4-major-win32/bin/../lib/gcc/arm-none-eabi/7.2.1/../../../../arm-none-eabi/lib/thumb/v7e-m/fpv4-sp/hard\libc.a(lib_a-__call_atexit.o)
 .text          0x0000032c        0x0 c:/ti/ccsv8/tools/compiler/gcc-arm-none-eabi-7-2017-q4-major-win32/bin/../lib/gcc/arm-none-eabi/7.2.1/../../../../arm-none-eabi/lib/thumb/v7e-m/fpv4-sp/hard\libc.a(lib_a-atexit.o)
 .text          0x0000032c        0x0 c:/ti/ccsv8/tools/compiler/gcc-arm-none-eabi-7-2017-q4-major-win32/bin/../lib/gcc/arm-none-eabi/7.2.1/../../../../arm-none-eabi/lib/thumb/v7e-m/fpv4-sp/hard\libc.a(lib_a-fini.o)
 .text          0x0000032c        0x0 c:/ti/ccsv8/tools/compiler/gcc-arm-none-eabi-7-2017-q4-major-win32/bin/../lib/gcc/arm-none-eabi/7.2.1/../../../../arm-none-eabi/lib/thumb/v7e-m/fpv4-sp/hard\libc.a(lib_a-lock.o)
 .text          0x0000032c        0x0 c:/ti/ccsv8/tools/compiler/gcc-arm-none-eabi-7-2017-q4-major-win32/bin/../lib/gcc/arm-none-eabi/7.2.1/../../../../arm-none-eabi/lib/thumb/v7e-m/fpv4-sp/hard\libc.a(lib_a-__atexit.o)
 .text          0x0000032c        0x0 c:/ti/ccsv8/tools/compiler/gcc-arm-none-eabi-7-2017-q4-major-win32/bin/../lib/gcc/arm-none-eabi/7.2.1/../../../../arm-none-eabi/lib/thumb/v7e-m/fpv4-sp/hard\libm.a(lib_a-s_floor.o)
 .text          0x0000032c        0x0 c:/ti/ccsv8/tools/compiler/gcc-arm-none-eabi-7-2017-q4-major-win32/bin/../lib/gcc/arm-none-eabi/7.2.1/../../../../arm-none-eabi/lib/thumb/v7e-m/fpv4-sp/hard\libm.a(lib_a-w_pow.o)
 .text          0x0000032c        0x0 c:/ti/ccsv8/tools/compiler/gcc-arm-none-eabi-7-2017-q4-major-win32/bin/../lib/gcc/arm-none-eabi/7.2.1/../../../../arm-none-eabi/lib/thumb/v7e-m/fpv4-sp/hard\libm.a(lib_a-e_pow.o)
 .text          0x0000032c        0x0 c:/ti/ccsv8/tools/compiler/gcc-arm-none-eabi-7-2017-q4-major-win32/bin/../lib/gcc/arm-none-eabi/7.2.1/../../../../arm-none-eabi/lib/thumb/v7e-m/fpv4-sp/hard\libm.a(lib_a-e_sqrt.o)
 .text          0x0000032c        0x0 c:/ti/ccsv8/tools/compiler/gcc-arm-none-eabi-7-2017-q4-major-win32/bin/../lib/gcc/arm-none-eabi/7.2.1/../../../../arm-none-eabi/lib/thumb/v7e-m/fpv4-sp/hard\libm.a(lib_a-s_fabs.o)
 .text          0x0000032c        0x0 c:/ti/ccsv8/tools/compiler/gcc-arm-none-eabi-7-2017-q4-major-win32/bin/../lib/gcc/arm-none-eabi/7.2.1/../../../../arm-none-eabi/lib/thumb/v7e-m/fpv4-sp/hard\libm.a(lib_a-s_finite.o)
 .text          0x0000032c        0x0 c:/ti/ccsv8/tools/compiler/gcc-arm-none-eabi-7-2017-q4-major-win32/bin/../lib/gcc/arm-none-eabi/7.2.1/../../../../arm-none-eabi/lib/thumb/v7e-m/fpv4-sp/hard\libm.a(lib_a-s_lib_ver.o)
 .text          0x0000032c        0x0 c:/ti/ccsv8/tools/compiler/gcc-arm-none-eabi-7-2017-q4-major-win32/bin/../lib/gcc/arm-none-eabi/7.2.1/../../../../arm-none-eabi/lib/thumb/v7e-m/fpv4-sp/hard\libm.a(lib_a-s_matherr.o)
 .text          0x0000032c        0x0 c:/ti/ccsv8/tools/compiler/gcc-arm-none-eabi-7-2017-q4-major-win32/bin/../lib/gcc/arm-none-eabi/7.2.1/../../../../arm-none-eabi/lib/thumb/v7e-m/fpv4-sp/hard\libm.a(lib_a-s_nan.o)
 .text          0x0000032c        0x0 c:/ti/ccsv8/tools/compiler/gcc-arm-none-eabi-7-2017-q4-major-win32/bin/../lib/gcc/arm-none-eabi/7.2.1/../../../../arm-none-eabi/lib/thumb/v7e-m/fpv4-sp/hard\libm.a(lib_a-s_rint.o)
 .text          0x0000032c        0x0 c:/ti/ccsv8/tools/compiler/gcc-arm-none-eabi-7-2017-q4-major-win32/bin/../lib/gcc/arm-none-eabi/7.2.1/../../../../arm-none-eabi/lib/thumb/v7e-m/fpv4-sp/hard\libm.a(lib_a-s_scalbn.o)
 .text          0x0000032c        0x0 c:/ti/ccsv8/tools/compiler/gcc-arm-none-eabi-7-2017-q4-major-win32/bin/../lib/gcc/arm-none-eabi/7.2.1/../../../../arm-none-eabi/lib/thumb/v7e-m/fpv4-sp/hard\libm.a(lib_a-s_copysign.o)
 .text          0x0000032c      0x378 c:/ti/ccsv8/tools/compiler/gcc-arm-none-eabi-7-2017-q4-major-win32/bin/../lib/gcc/arm-none-eabi/7.2.1/thumb/v7e-m/fpv4-sp/hard\libgcc.a(_arm_addsubdf3.o)
                0x0000032c                __aeabi_drsub
                0x00000334                __aeabi_dsub
                0x00000334                __subdf3
                0x00000338                __aeabi_dadd
                0x00000338                __adddf3
                0x000005b0                __floatunsidf
                0x000005b0                __aeabi_ui2d
                0x000005d0                __floatsidf
                0x000005d0                __aeabi_i2d
                0x000005f4                __aeabi_f2d
                0x000005f4                __extendsfdf2
                0x00000638                __floatundidf
                0x00000638                __aeabi_ul2d
                0x00000648                __floatdidf
                0x00000648                __aeabi_l2d
 .text          0x000006a4      0x424 c:/ti/ccsv8/tools/compiler/gcc-arm-none-eabi-7-2017-q4-major-win32/bin/../lib/gcc/arm-none-eabi/7.2.1/thumb/v7e-m/fpv4-sp/hard\libgcc.a(_arm_muldivdf3.o)
                0x000006a4                __aeabi_dmul
                0x000006a4                __muldf3
                0x000008f8                __divdf3
                0x000008f8                __aeabi_ddiv
 .text          0x00000ac8      0x110 c:/ti/ccsv8/tools/compiler/gcc-arm-none-eabi-7-2017-q4-major-win32/bin/../lib/gcc/arm-none-eabi/7.2.1/thumb/v7e-m/fpv4-sp/hard\libgcc.a(_arm_cmpdf2.o)
                0x00000ac8                __gtdf2
                0x00000ac8                __gedf2
                0x00000ad0                __ltdf2
                0x00000ad0                __ledf2
                0x00000ad8                __nedf2
                0x00000ad8                __eqdf2
                0x00000ad8                __cmpdf2
                0x00000b54                __aeabi_cdrcmple
                0x00000b64                __aeabi_cdcmpeq
                0x00000b64                __aeabi_cdcmple
                0x00000b74                __aeabi_dcmpeq
                0x00000b88                __aeabi_dcmplt
                0x00000b9c                __aeabi_dcmple
                0x00000bb0                __aeabi_dcmpge
                0x00000bc4                __aeabi_dcmpgt
 .text          0x00000bd8       0x2c c:/ti/ccsv8/tools/compiler/gcc-arm-none-eabi-7-2017-q4-major-win32/bin/../lib/gcc/arm-none-eabi/7.2.1/thumb/v7e-m/fpv4-sp/hard\libgcc.a(_arm_unorddf2.o)
                0x00000bd8                __unorddf2
                0x00000bd8                __aeabi_dcmpun
 .text          0x00000c04       0x50 c:/ti/ccsv8/tools/compiler/gcc-arm-none-eabi-7-2017-q4-major-win32/bin/../lib/gcc/arm-none-eabi/7.2.1/thumb/v7e-m/fpv4-sp/hard\libgcc.a(_arm_fixdfsi.o)
                0x00000c04                __aeabi_d2iz
                0x00000c04                __fixdfsi
 .text          0x00000c54       0x40 c:/ti/ccsv8/tools/compiler/gcc-arm-none-eabi-7-2017-q4-major-win32/bin/../lib/gcc/arm-none-eabi/7.2.1/thumb/v7e-m/fpv4-sp/hard\libgcc.a(_arm_fixunsdfsi.o)
                0x00000c54                __aeabi_d2uiz
                0x00000c54                __fixunsdfsi
 .text          0x00000c94       0xa0 c:/ti/ccsv8/tools/compiler/gcc-arm-none-eabi-7-2017-q4-major-win32/bin/../lib/gcc/arm-none-eabi/7.2.1/thumb/v7e-m/fpv4-sp/hard\libgcc.a(_arm_truncdfsf2.o)
                0x00000c94                __truncdfsf2
                0x00000c94                __aeabi_d2f
 .text          0x00000d34        0x0 c:/ti/ccsv8/tools/compiler/gcc-arm-none-eabi-7-2017-q4-major-win32/bin/../lib/gcc/arm-none-eabi/7.2.1/../../../../arm-none-eabi/lib/thumb/v7e-m/fpv4-sp/hard\libc.a(lib_a-errno.o)
 .text          0x00000d34        0x0 C:/Users/Marco/Desktop/EjemploTivaC2/tiva/TivaWare_C_Series-2.1.4.178/driverlib/gcc\libdriver.a(fpu.o)
 .text          0x00000d34        0x0 C:/Users/Marco/Desktop/EjemploTivaC2/tiva/TivaWare_C_Series-2.1.4.178/driverlib/gcc\libdriver.a(gpio.o)
 .text          0x00000d34        0x0 C:/Users/Marco/Desktop/EjemploTivaC2/tiva/TivaWare_C_Series-2.1.4.178/driverlib/gcc\libdriver.a(interrupt.o)
 .text          0x00000d34        0x0 C:/Users/Marco/Desktop/EjemploTivaC2/tiva/TivaWare_C_Series-2.1.4.178/driverlib/gcc\libdriver.a(mpu.o)
 .text          0x00000d34        0x0 C:/Users/Marco/Desktop/EjemploTivaC2/tiva/TivaWare_C_Series-2.1.4.178/driverlib/gcc\libdriver.a(ssi.o)
 .text          0x00000d34        0x0 C:/Users/Marco/Desktop/EjemploTivaC2/tiva/TivaWare_C_Series-2.1.4.178/driverlib/gcc\libdriver.a(sysctl.o)
 .text          0x00000d34        0x0 C:/Users/Marco/Desktop/EjemploTivaC2/tiva/TivaWare_C_Series-2.1.4.178/driverlib/gcc\libdriver.a(systick.o)
 .text          0x00000d34        0x0 C:/Users/Marco/Desktop/EjemploTivaC2/tiva/TivaWare_C_Series-2.1.4.178/driverlib/gcc\libdriver.a(uart.o)
 .text          0x00000d34        0x0 C:/Users/Marco/Desktop/EjemploTivaC2/tiva/TivaWare_C_Series-2.1.4.178/driverlib/gcc\libdriver.a(cpu.o)
 .text          0x00000d34        0x0 c:/ti/ccsv8/tools/compiler/gcc-arm-none-eabi-7-2017-q4-major-win32/bin/../lib/gcc/arm-none-eabi/7.2.1/../../../../arm-none-eabi/lib/thumb/v7e-m/fpv4-sp/hard\libnosys.a(_exit.o)
 .text          0x00000d34        0x0 c:/ti/ccsv8/tools/compiler/gcc-arm-none-eabi-7-2017-q4-major-win32/bin/../lib/gcc/arm-none-eabi/7.2.1/thumb/v7e-m/fpv4-sp/hard/crtend.o
 .text          0x00000d34        0x0 c:/ti/ccsv8/tools/compiler/gcc-arm-none-eabi-7-2017-q4-major-win32/bin/../lib/gcc/arm-none-eabi/7.2.1/thumb/v7e-m/fpv4-sp/hard/crtn.o
 *(.text*)
 .text.Control_Res
                0x00000d34       0x6c ./Control_Res.o
                0x00000d34                Control_Res
 .text.Local_Average
                0x00000da0       0x52 ./Local_Average.o
                0x00000da0                Local_Average
 *fill*         0x00000df2        0x2 
 .text.assert_failed
                0x00000df4       0x24 ./bsp.o
                0x00000df4                assert_failed
 .text.sw_debounce
                0x00000e18       0x60 ./bsp.o
                0x00000e18                sw_debounce
 .text.SysTick_Init
                0x00000e78       0x14 ./bsp.o
                0x00000e78                SysTick_Init
 .text.indM_control_and_RCalculation
                0x00000e8c      0x2ac ./indM_control_and_RCalculation.o
                0x00000e8c                indM_control_and_RCalculation
 .text.indM_data_Processing
                0x00001138      0x2c0 ./indM_data_Processing.o
                0x00001138                indM_data_Processing
 .text.indM_get_Data
                0x000013f8       0x2c ./indM_get_Data.o
                0x000013f8                indM_get_Data
 .text.indM_get_Data_Array
                0x00001424       0x8c ./indM_get_Data_Array.o
                0x00001424                indM_get_Data_Array
 .text.indM_normal_Close
                0x000014b0       0x68 ./indM_normal_Close.o
                0x000014b0                indM_normal_Close
 .text.indM_port_configuration
                0x00001518      0x2a0 ./indM_port_configuration.o
                0x00001518                indM_port_configuration
 .text.indM_res_Closing
                0x000017b8       0x80 ./indM_res_Closing.o
                0x000017b8                indM_res_Closing
 .text.indM_res_Init
                0x00001838      0x174 ./indM_res_Init.o
                0x00001838                indM_res_Init
 .text.indM_safe_Close
                0x000019ac       0x58 ./indM_safe_Close.o
                0x000019ac                indM_safe_Close
 .text.indM_set_Time_Reference
                0x00001a04       0x1c ./indM_set_Time_Reference.o
                0x00001a04                indM_set_Time_Reference
 .text.indM_setting
                0x00001a20      0x28c ./indM_setting.o
                0x00001a20                indM_setting
 .text.indM_uART_routine
                0x00001cac       0xc4 ./indM_uART_routine.o
                0x00001cac                indM_uART_routine
 .text.least_square
                0x00001d70      0x16c ./least_square.o
                0x00001d70                least_square
 .text.SysTick_Handler_Hook
                0x00001edc       0x10 ./main.o
                0x00001edc                SysTick_Handler_Hook
 .text.indM_set_timer
                0x00001eec       0x1c ./main.o
                0x00001eec                indM_set_timer
 .text.indM_unset_timer
                0x00001f08       0x10 ./main.o
                0x00001f08                indM_unset_timer
 .text.Systick_Configuration
                0x00001f18       0x24 ./main.o
                0x00001f18                Systick_Configuration
 .text.main     0x00001f3c       0xbc ./main.o
                0x00001f3c                main
 .text.indM_systick_Conf
                0x00001ff8        0xa ./main.o
                0x00001ff8                indM_systick_Conf
 .text.indM_handler_Disable
                0x00002002        0xc ./main.o
                0x00002002                indM_handler_Disable
 *fill*         0x0000200e        0x2 
 .text.NMI_Handler
                0x00002010       0x14 ./startup_tm4c_gnu.o
                0x00002010                NMI_Handler
 .text.MemManage_Handler
                0x00002024       0x18 ./startup_tm4c_gnu.o
                0x00002024                MemManage_Handler
 .text.HardFault_Handler
                0x0000203c       0x18 ./startup_tm4c_gnu.o
                0x0000203c                HardFault_Handler
 .text.BusFault_Handler
                0x00002054       0x18 ./startup_tm4c_gnu.o
                0x00002054                BusFault_Handler
 .text.UsageFault_Handler
                0x0000206c       0x1c ./startup_tm4c_gnu.o
                0x0000206c                UsageFault_Handler
 .text.Default_Handler
                0x00002088       0x18 ./startup_tm4c_gnu.o
                0x00002088                uDMAST_IRQHandler
                0x00002088                GPIOPortP4_IRQHandler
                0x00002088                PWM1Gen3_IRQHandler
                0x00002088                WideTimer5B_IRQHandler
                0x00002088                DebugMon_Handler
                0x00002088                QEI2_IRQHandler
                0x00002088                FlashCtrl_IRQHandler
                0x00002088                GPIOPortP7_IRQHandler
                0x00002088                Timer0B_IRQHandler
                0x00002088                I2C0_IRQHandler
                0x00002088                SysTick_Handler
                0x00002088                WideTimer4B_IRQHandler
                0x00002088                PendSV_Handler
                0x00002088                I2C1_IRQHandler
                0x00002088                GPIOPortP5_IRQHandler
                0x00002088                PWMGen0_IRQHandler
                0x00002088                UART1_IRQHandler
                0x00002088                CAN1_IRQHandler
                0x00002088                Timer1B_IRQHandler
                0x00002088                Watchdog_IRQHandler
                0x00002088                GPIOPortS_IRQHandler
                0x00002088                GPIOPortQ7_IRQHandler
                0x00002088                PWM1Gen2_IRQHandler
                0x00002088                UART0_IRQHandler
                0x00002088                GPIOPortL_IRQHandler
                0x00002088                SSI0_IRQHandler
                0x00002088                GPIOPortM_IRQHandler
                0x00002088                FPU_IRQHandler
                0x00002088                ADCSeq1_IRQHandler
                0x00002088                GPIOPortP0_IRQHandler
                0x00002088                WideTimer0B_IRQHandler
                0x00002088                PWMFault_IRQHandler
                0x00002088                WideTimer1A_IRQHandler
                0x00002088                I2C4_IRQHandler
                0x00002088                I2C5_IRQHandler
                0x00002088                GPIOPortQ5_IRQHandler
                0x00002088                PWMGen1_IRQHandler
                0x00002088                SSI1_IRQHandler
                0x00002088                I2C2_IRQHandler
                0x00002088                GPIOPortC_IRQHandler
                0x00002088                UART5_IRQHandler
                0x00002088                GPIOPortK_IRQHandler
                0x00002088                ADCSeq2_IRQHandler
                0x00002088                PWMGen2_IRQHandler
                0x00002088                UART2_IRQHandler
                0x00002088                GPIOPortP3_IRQHandler
                0x00002088                ADC1Seq0_IRQHandler
                0x00002088                UART4_IRQHandler
                0x00002088                GPIOPortJ_IRQHandler
                0x00002088                Default_Handler
                0x00002088                WideTimer0A_IRQHandler
                0x00002088                Timer5A_IRQHandler
                0x00002088                WideTimer3B_IRQHandler
                0x00002088                WideTimer2B_IRQHandler
                0x00002088                WideTimer5A_IRQHandler
                0x00002088                Timer4A_IRQHandler
                0x00002088                QEI1_IRQHandler
                0x00002088                PWM1Fault_IRQHandler
                0x00002088                GPIOPortP6_IRQHandler
                0x00002088                QEI0_IRQHandler
                0x00002088                ADC1Seq2_IRQHandler
                0x00002088                ADC1Seq1_IRQHandler
                0x00002088                PWMGen3_IRQHandler
                0x00002088                GPIOPortD_IRQHandler
                0x00002088                USB0_IRQHandler
                0x00002088                I2C3_IRQHandler
                0x00002088                SVC_Handler
                0x00002088                GPIOPortP2_IRQHandler
                0x00002088                GPIOPortQ4_IRQHandler
                0x00002088                Timer3B_IRQHandler
                0x00002088                Timer3A_IRQHandler
                0x00002088                GPIOPortA_IRQHandler
                0x00002088                ADC1Seq3_IRQHandler
                0x00002088                Timer0A_IRQHandler
                0x00002088                GPIOPortP1_IRQHandler
                0x00002088                ADCSeq0_IRQHandler
                0x00002088                Timer1A_IRQHandler
                0x00002088                GPIOPortG_IRQHandler
                0x00002088                GPIOPortQ1_IRQHandler
                0x00002088                GPIOPortQ3_IRQHandler
                0x00002088                Timer5B_IRQHandler
                0x00002088                ADCSeq3_IRQHandler
                0x00002088                WideTimer4A_IRQHandler
                0x00002088                GPIOPortE_IRQHandler
                0x00002088                CAN0_IRQHandler
                0x00002088                GPIOPortQ0_IRQHandler
                0x00002088                Comp0_IRQHandler
                0x00002088                Comp1_IRQHandler
                0x00002088                Comp2_IRQHandler
                0x00002088                GPIOPortQ6_IRQHandler
                0x00002088                SSI2_IRQHandler
                0x00002088                PWM1Gen0_IRQHandler
                0x00002088                GPIOPortF_IRQHandler
                0x00002088                UART7_IRQHandler
                0x00002088                UART6_IRQHandler
                0x00002088                WideTimer2A_IRQHandler
                0x00002088                GPIOPortB_IRQHandler
                0x00002088                WideTimer3A_IRQHandler
                0x00002088                CAN2_IRQHandler
                0x00002088                WideTimer1B_IRQHandler
                0x00002088                GPIOPortH_IRQHandler
                0x00002088                GPIOPortQ2_IRQHandler
                0x00002088                GPIOPortR_IRQHandler
                0x00002088                Timer4B_IRQHandler
                0x00002088                Timer2A_IRQHandler
                0x00002088                SSI3_IRQHandler
                0x00002088                Timer2B_IRQHandler
                0x00002088                uDMAError_IRQHandler
                0x00002088                GPIOPortN_IRQHandler
                0x00002088                UART3_IRQHandler
                0x00002088                SysCtrl_IRQHandler
                0x00002088                Hibernate_IRQHandler
                0x00002088                PWM1Gen1_IRQHandler
 .text.Reset_Handler
                0x000020a0       0x60 ./startup_tm4c_gnu.o
                0x000020a0                Reset_Handler
 .text.UARTStdioConfig
                0x00002100       0x48 ./uartstdio.o
                0x00002100                UARTStdioConfig
 .text.UARTwrite
                0x00002148       0x38 ./uartstdio.o
                0x00002148                UARTwrite
 .text.UARTgets
                0x00002180       0x88 ./uartstdio.o
                0x00002180                UARTgets
 .text.UARTgetc
                0x00002208       0x14 ./uartstdio.o
                0x00002208                UARTgetc
 .text.UARTvprintf
                0x0000221c      0x204 ./uartstdio.o
                0x0000221c                UARTvprintf
 .text.UARTprintf
                0x00002420       0x1c ./uartstdio.o
                0x00002420                UARTprintf
 .text.sc_timer_fired
                0x0000243c        0xe ./src/sc_timer_service.o
 .text.sc_timer_start
                0x0000244a       0x46 ./src/sc_timer_service.o
                0x0000244a                sc_timer_start
 .text.sc_timer_cancel
                0x00002490       0x36 ./src/sc_timer_service.o
                0x00002490                sc_timer_cancel
 .text.sc_timer_service_init
                0x000024c6       0x26 ./src/sc_timer_service.o
                0x000024c6                sc_timer_service_init
 .text.sc_timer_service_proceed
                0x000024ec       0x54 ./src/sc_timer_service.o
                0x000024ec                sc_timer_service_proceed
 .text.swapInEvents
                0x00002540       0x4c ./src-gen/indM.o
 .text.clearInEvents
                0x0000258c       0x1c ./src-gen/indM.o
 .text.swapInternalEvents
                0x000025a8       0x28 ./src-gen/indM.o
 .text.clearInternalEvents
                0x000025d0        0x8 ./src-gen/indM.o
 .text.check_R_Main_s_Rl_Measurement_R_Res_Med__choice_0_tr1_tr1
                0x000025d8       0x14 ./src-gen/indM.o
 .text.check_R_Main_s_Time_Gain_Setting_R_Time_Gain_set__choice_0_tr0_tr0
                0x000025ec        0x6 ./src-gen/indM.o
 .text.check_R_Main_s_Time_Gain_Setting_R_Time_Gain_set__choice_1_tr0_tr0
                0x000025f2       0x12 ./src-gen/indM.o
 .text.enact_R_Main_s_Ind_Measurement
                0x00002604        0x6 ./src-gen/indM.o
 .text.enact_R_Handler_s_Time_Gain_Set_Handler_r_handler_s_end_time
                0x0000260a        0x8 ./src-gen/indM.o
 .text.exact_R_Main_s_Rl_Measurement_R_Res_Med_s_Control_and_RCalculation
                0x00002612        0x8 ./src-gen/indM.o
 .text.enseq_R_Main_s_Rl_Measurement_R_Res_Med_s_Wait_default
                0x0000261a        0xa ./src-gen/indM.o
 .text.effect_R_Main_s_Rl_Measurement_R_Res_Med__choice_0_tr0
                0x00002624        0x8 ./src-gen/indM.o
 .text.enseq_R_Main_s_Ind_Measurement_R_Main_Measurement_s_Wait_User_default
                0x0000262c        0xa ./src-gen/indM.o
 .text.enseq_R_Main_s_Ind_Measurement_R_Main_Measurement_s_Wait_New_data_default
                0x00002636        0xa ./src-gen/indM.o
 .text.enseq_R_Handler_s_Null_Handler_default
                0x00002640        0xa ./src-gen/indM.o
 .text.enseq_R_Handler_s_Time_Gain_Set_Handler_r_handler_s_end_time_default
                0x0000264a       0x12 ./src-gen/indM.o
 .text.exseq_R_Main_s_Port_Configuration
                0x0000265c        0x8 ./src-gen/indM.o
 .text.exseq_R_Main_s_Rl_Measurement_R_Res_Med_s_Wait
                0x00002664        0x8 ./src-gen/indM.o
 .text.exseq_R_Main_s_Rl_Measurement_R_Res_Med_s_Initilization
                0x0000266c        0x8 ./src-gen/indM.o
 .text.exseq_R_Main_s_Rl_Measurement_R_Res_Med_s_Control_and_RCalculation
                0x00002674        0xe ./src-gen/indM.o
 .text.exseq_R_Main_s_Rl_Measurement_R_Res_Med_s_Close
                0x00002682        0x8 ./src-gen/indM.o
 .text.exseq_R_Main_s_Time_Gain_Setting_R_Time_Gain_set_s_Safe_Close
                0x0000268a        0x8 ./src-gen/indM.o
 .text.exseq_R_Main_s_Time_Gain_Setting_R_Time_Gain_set_s_Normal_Close
                0x00002692        0x8 ./src-gen/indM.o
 .text.exseq_R_Main_s_Ind_Measurement_R_Main_Measurement_s_Wait_User
                0x0000269a        0x8 ./src-gen/indM.o
 .text.exseq_R_Main_s_Ind_Measurement_R_Main_Measurement_s_Wait_New_data
                0x000026a2        0x8 ./src-gen/indM.o
 .text.exseq_R_Main_s_Ind_Measurement_R_Main_Measurement_s_Data_Processing
                0x000026aa        0x8 ./src-gen/indM.o
 .text.exseq_R_Handler_s_Null_Handler
                0x000026b2        0xa ./src-gen/indM.o
 .text.exseq_R_Handler_s_Time_Gain_Set_Handler_r_handler_s_end_time
                0x000026bc        0xa ./src-gen/indM.o
 .text.exseq_R_Main_s_Rl_Measurement_R_Res_Med
                0x000026c6       0x2a ./src-gen/indM.o
 .text.exseq_R_Main_s_Rl_Measurement
                0x000026f0        0x8 ./src-gen/indM.o
 .text.exseq_R_Main_s_Ind_Measurement_R_Main_Measurement
                0x000026f8       0x24 ./src-gen/indM.o
 .text.exseq_R_Main_s_Ind_Measurement
                0x0000271c        0x8 ./src-gen/indM.o
 .text.react_R_Main_s_Ind_Measurement_R_Main_Measurement__entry_Default
                0x00002724        0x8 ./src-gen/indM.o
 .text.enseq_R_Main_s_Ind_Measurement_R_Main_Measurement_default
                0x0000272c        0x8 ./src-gen/indM.o
 .text.enseq_R_Main_s_Ind_Measurement_default
                0x00002734       0x10 ./src-gen/indM.o
 .text.react_R_Handler__entry_Default
                0x00002744        0x8 ./src-gen/indM.o
 .text.enseq_R_Handler_default
                0x0000274c        0x8 ./src-gen/indM.o
 .text.react    0x00002754        0x4 ./src-gen/indM.o
 .text.R_Main_s_Rl_Measurement_react
                0x00002758       0x12 ./src-gen/indM.o
 .text.R_Main_s_Rl_Measurement_R_Res_Med_s_Initilization_react
                0x0000276a       0x28 ./src-gen/indM.o
 .text.R_Main_s_Time_Gain_Setting_react
                0x00002792       0x12 ./src-gen/indM.o
 .text.enact_R_Main_s_Port_Configuration
                0x000027a4        0xc ./src-gen/indM.o
 .text.enseq_R_Main_s_Port_Configuration_default
                0x000027b0       0x12 ./src-gen/indM.o
 .text.react_R_Main__entry_Default
                0x000027c2        0x8 ./src-gen/indM.o
 .text.enseq_R_Main_default
                0x000027ca        0x8 ./src-gen/indM.o
 .text.R_Main_s_Ind_Measurement_react
                0x000027d2       0x28 ./src-gen/indM.o
 .text.R_Main_s_Ind_Measurement_R_Main_Measurement_s_Data_Processing_react
                0x000027fa       0x2c ./src-gen/indM.o
 .text.exact_R_Main_s_Time_Gain_Setting_R_Time_Gain_set_s_Setting
                0x00002826        0xc ./src-gen/indM.o
 .text.exseq_R_Main_s_Time_Gain_Setting_R_Time_Gain_set_s_Setting
                0x00002832        0xe ./src-gen/indM.o
 .text.exseq_R_Main
                0x00002840       0x5e ./src-gen/indM.o
 .text.exseq_R_Main_s_Time_Gain_Setting_R_Time_Gain_set
                0x0000289e       0x24 ./src-gen/indM.o
 .text.exseq_R_Main_s_Time_Gain_Setting
                0x000028c2        0x8 ./src-gen/indM.o
 .text.effect_R_Main_s_Time_Gain_Setting_tr0
                0x000028ca       0x10 ./src-gen/indM.o
 .text.react_R_Main_s_Time_Gain_Setting_R_Time_Gain_set_Close
                0x000028da        0x8 ./src-gen/indM.o
 .text.R_Main_s_Time_Gain_Setting_R_Time_Gain_set_s_Safe_Close_react
                0x000028e2       0x26 ./src-gen/indM.o
 .text.R_Main_s_Time_Gain_Setting_R_Time_Gain_set_s_Normal_Close_react
                0x00002908       0x26 ./src-gen/indM.o
 .text.exact_R_Handler_s_Time_Gain_Set_Handler_r_handler_s_waiting
                0x0000292e        0xc ./src-gen/indM.o
 .text.exseq_R_Handler_s_Time_Gain_Set_Handler_r_handler_s_waiting
                0x0000293a       0x10 ./src-gen/indM.o
 .text.exseq_R_Handler_s_Time_Gain_Set_Handler_r_handler
                0x0000294a       0x1a ./src-gen/indM.o
 .text.exseq_R_Handler_s_Time_Gain_Set_Handler
                0x00002964        0x8 ./src-gen/indM.o
 .text.exact_R_Handler_s_Rl_Measurement_Handler
                0x0000296c        0xc ./src-gen/indM.o
 .text.exseq_R_Handler_s_Rl_Measurement_Handler
                0x00002978       0x10 ./src-gen/indM.o
 .text.exact_R_Handler_s_Ind_Measurement_Handler
                0x00002988        0xc ./src-gen/indM.o
 .text.exseq_R_Handler_s_Ind_Measurement_Handler
                0x00002994       0x10 ./src-gen/indM.o
 .text.exseq_R_Handler
                0x000029a4       0x32 ./src-gen/indM.o
 .text.enact_R_Main_s_Rl_Measurement_R_Res_Med_s_Initilization
                0x000029d6       0x18 ./src-gen/indM.o
 .text.enseq_R_Main_s_Rl_Measurement_R_Res_Med_s_Initilization_default
                0x000029ee       0x12 ./src-gen/indM.o
 .text.react_R_Main_s_Rl_Measurement_R_Res_Med_Default
                0x00002a00        0x8 ./src-gen/indM.o
 .text.enseq_R_Main_s_Rl_Measurement_R_Res_Med_Default
                0x00002a08        0x8 ./src-gen/indM.o
 .text.enseq_R_Main_s_Rl_Measurement_Default
                0x00002a10        0x8 ./src-gen/indM.o
 .text.R_Main_s_Port_Configuration_react
                0x00002a18       0x2c ./src-gen/indM.o
 .text.enact_R_Main_s_Rl_Measurement_R_Res_Med_s_Control_and_RCalculation
                0x00002a44       0x16 ./src-gen/indM.o
 .text.enseq_R_Main_s_Rl_Measurement_R_Res_Med_s_Control_and_RCalculation_default
                0x00002a5a       0x12 ./src-gen/indM.o
 .text.R_Main_s_Rl_Measurement_R_Res_Med_s_Wait_react
                0x00002a6c       0x32 ./src-gen/indM.o
 .text.enact_R_Main_s_Rl_Measurement_R_Res_Med_s_Close
                0x00002a9e        0xe ./src-gen/indM.o
 .text.enseq_R_Main_s_Rl_Measurement_R_Res_Med_s_Close_default
                0x00002aac       0x12 ./src-gen/indM.o
 .text.effect_R_Main_s_Rl_Measurement_R_Res_Med__choice_0_tr1
                0x00002abe        0x8 ./src-gen/indM.o
 .text.react_R_Main_s_Rl_Measurement_R_Res_Med__choice_0
                0x00002ac6       0x1a ./src-gen/indM.o
 .text.R_Main_s_Rl_Measurement_R_Res_Med_s_Control_and_RCalculation_react
                0x00002ae0       0x20 ./src-gen/indM.o
 .text.enact_R_Handler_s_Rl_Measurement_Handler
                0x00002b00       0x18 ./src-gen/indM.o
 .text.enseq_R_Handler_s_Rl_Measurement_Handler_default
                0x00002b18       0x12 ./src-gen/indM.o
 *fill*         0x00002b2a        0x2 
 .text.enact_R_Handler_s_Ind_Measurement_Handler
                0x00002b2c       0x1c ./src-gen/indM.o
 .text.enseq_R_Handler_s_Ind_Measurement_Handler_default
                0x00002b48       0x12 ./src-gen/indM.o
 *fill*         0x00002b5a        0x2 
 .text.enact_R_Handler_s_Time_Gain_Set_Handler_r_handler_s_waiting
                0x00002b5c       0x14 ./src-gen/indM.o
 .text.enseq_R_Handler_s_Time_Gain_Set_Handler_r_handler_s_waiting_default
                0x00002b70       0x12 ./src-gen/indM.o
 .text.react_R_Handler_s_Time_Gain_Set_Handler_r_handler__entry_Default
                0x00002b82        0x8 ./src-gen/indM.o
 .text.enseq_R_Handler_s_Time_Gain_Set_Handler_r_handler_default
                0x00002b8a        0x8 ./src-gen/indM.o
 .text.enseq_R_Handler_s_Time_Gain_Set_Handler_default
                0x00002b92        0x8 ./src-gen/indM.o
 .text.enact_R_Main_s_Time_Gain_Setting_R_Time_Gain_set_s_Setting
                0x00002b9a       0x28 ./src-gen/indM.o
 .text.enseq_R_Main_s_Time_Gain_Setting_R_Time_Gain_set_s_Setting_default
                0x00002bc2       0x12 ./src-gen/indM.o
 .text.react_R_Main_s_Time_Gain_Setting_R_Time_Gain_set_Time_Start
                0x00002bd4        0x8 ./src-gen/indM.o
 .text.enseq_R_Main_s_Time_Gain_Setting_R_Time_Gain_set_Time_Start
                0x00002bdc        0x8 ./src-gen/indM.o
 .text.enseq_R_Main_s_Time_Gain_Setting_Time_Start
                0x00002be4        0x8 ./src-gen/indM.o
 .text.R_Main_s_Rl_Measurement_R_Res_Med_s_Close_react
                0x00002bec       0x42 ./src-gen/indM.o
 .text.effect_R_Main_s_Time_Gain_Setting_R_Time_Gain_set__choice_1_tr1
                0x00002c2e        0x8 ./src-gen/indM.o
 .text.enact_R_Main_s_Time_Gain_Setting_R_Time_Gain_set_s_Safe_Close
                0x00002c36        0xc ./src-gen/indM.o
 .text.enseq_R_Main_s_Time_Gain_Setting_R_Time_Gain_set_s_Safe_Close_default
                0x00002c42       0x12 ./src-gen/indM.o
 .text.effect_R_Main_s_Time_Gain_Setting_R_Time_Gain_set__choice_0_tr0
                0x00002c54        0x8 ./src-gen/indM.o
 .text.enact_R_Main_s_Time_Gain_Setting_R_Time_Gain_set_s_Normal_Close
                0x00002c5c       0x10 ./src-gen/indM.o
 .text.enseq_R_Main_s_Time_Gain_Setting_R_Time_Gain_set_s_Normal_Close_default
                0x00002c6c       0x12 ./src-gen/indM.o
 .text.effect_R_Main_s_Time_Gain_Setting_R_Time_Gain_set__choice_1_tr0
                0x00002c7e        0x8 ./src-gen/indM.o
 .text.react_R_Main_s_Time_Gain_Setting_R_Time_Gain_set__choice_1
                0x00002c86       0x1a ./src-gen/indM.o
 .text.effect_R_Main_s_Time_Gain_Setting_R_Time_Gain_set__choice_0_tr1
                0x00002ca0        0x8 ./src-gen/indM.o
 .text.react_R_Main_s_Time_Gain_Setting_R_Time_Gain_set__choice_0
                0x00002ca8       0x1a ./src-gen/indM.o
 .text.R_Main_s_Time_Gain_Setting_R_Time_Gain_set_s_Setting_react
                0x00002cc2       0x28 ./src-gen/indM.o
 .text.R_Main_s_Ind_Measurement_R_Main_Measurement_s_Wait_User_react
                0x00002cea       0x38 ./src-gen/indM.o
 .text.enact_R_Main_s_Ind_Measurement_R_Main_Measurement_s_Data_Processing
                0x00002d22       0x14 ./src-gen/indM.o
 .text.enseq_R_Main_s_Ind_Measurement_R_Main_Measurement_s_Data_Processing_default
                0x00002d36       0x12 ./src-gen/indM.o
 .text.R_Main_s_Ind_Measurement_R_Main_Measurement_s_Wait_New_data_react
                0x00002d48       0x38 ./src-gen/indM.o
 .text.R_Handler_s_Ind_Measurement_Handler_react
                0x00002d80       0x3e ./src-gen/indM.o
 .text.indM_init
                0x00002dbe       0x5e ./src-gen/indM.o
                0x00002dbe                indM_init
 .text.indM_enter
                0x00002e1c       0x24 ./src-gen/indM.o
                0x00002e1c                indM_enter
 .text.indM_exit
                0x00002e40       0x24 ./src-gen/indM.o
                0x00002e40                indM_exit
 .text.indM_is_active
                0x00002e64       0x22 ./src-gen/indM.o
                0x00002e64                indM_is_active
 .text.indM_is_final
                0x00002e86        0x4 ./src-gen/indM.o
                0x00002e86                indM_is_final
 .text.indM_raise_time_event
                0x00002e8a       0x12 ./src-gen/indM.o
                0x00002e8a                indM_raise_time_event
 .text.indM_is_state_active
                0x00002e9c      0x124 ./src-gen/indM.o
                0x00002e9c                indM_is_state_active
 .text.R_Handler_s_Null_Handler_react
                0x00002fc0       0x2a ./src-gen/indM.o
 .text.R_Handler_s_Time_Gain_Set_Handler_react
                0x00002fea       0x42 ./src-gen/indM.o
 .text.R_Handler_s_Time_Gain_Set_Handler_r_handler_s_waiting_react
                0x0000302c       0x2c ./src-gen/indM.o
 .text.R_Handler_s_Time_Gain_Set_Handler_r_handler_s_end_time_react
                0x00003058       0x16 ./src-gen/indM.o
 .text.R_Handler_s_Rl_Measurement_Handler_react
                0x0000306e       0x56 ./src-gen/indM.o
 .text.indM_run_cycle
                0x000030c4      0x13c ./src-gen/indM.o
                0x000030c4                indM_run_cycle
 .text.indM_raise_play
                0x00003200        0x8 ./src-gen/indM.o
                0x00003200                indM_raise_play
 .text.indM_raise_stop
                0x00003208        0x8 ./src-gen/indM.o
                0x00003208                indM_raise_stop
 .text.indM_get_conf_Ready
                0x00003210        0x4 ./src-gen/indM.o
                0x00003210                indM_get_conf_Ready
 .text.indM_set_conf_Ready
                0x00003214        0x4 ./src-gen/indM.o
                0x00003214                indM_set_conf_Ready
 .text.indM_get_sp_Vref
                0x00003218        0x4 ./src-gen/indM.o
                0x00003218                indM_get_sp_Vref
 .text.indM_set_sp_Vref
                0x0000321c        0x4 ./src-gen/indM.o
                0x0000321c                indM_set_sp_Vref
 .text.indM_get_sp_v_gate
                0x00003220        0x4 ./src-gen/indM.o
                0x00003220                indM_get_sp_v_gate
 .text.indM_set_sp_v_gate
                0x00003224        0x4 ./src-gen/indM.o
                0x00003224                indM_set_sp_v_gate
 .text.indM_get_sp_data
                0x00003228        0x4 ./src-gen/indM.o
                0x00003228                indM_get_sp_data
 .text.indM_set_sp_data
                0x0000322c        0x4 ./src-gen/indM.o
                0x0000322c                indM_set_sp_data
 .text.indM_get_sp_R
                0x00003230        0x4 ./src-gen/indM.o
                0x00003230                indM_get_sp_R
 .text.indM_set_sp_R
                0x00003234        0x4 ./src-gen/indM.o
                0x00003234                indM_set_sp_R
 .text.indM_get_sp_bf_Y
                0x00003238        0x4 ./src-gen/indM.o
                0x00003238                indM_get_sp_bf_Y
 .text.indM_set_sp_bf_Y
                0x0000323c        0x4 ./src-gen/indM.o
                0x0000323c                indM_set_sp_bf_Y
 .text.indM_get_sp_bf_i_Y
                0x00003240        0x4 ./src-gen/indM.o
                0x00003240                indM_get_sp_bf_i_Y
 .text.indM_set_sp_bf_i_Y
                0x00003244        0x4 ./src-gen/indM.o
                0x00003244                indM_set_sp_bf_i_Y
 .text.indM_get_runs
                0x00003248        0x4 ./src-gen/indM.o
                0x00003248                indM_get_runs
 .text.indM_set_runs
                0x0000324c        0x4 ./src-gen/indM.o
                0x0000324c                indM_set_runs
 .text.indM_get_f_res_configured
                0x00003250        0x6 ./src-gen/indM.o
                0x00003250                indM_get_f_res_configured
 .text.indM_set_f_res_configured
                0x00003256        0x6 ./src-gen/indM.o
                0x00003256                indM_set_f_res_configured
 .text.indM_get_n_i
                0x0000325c        0x4 ./src-gen/indM.o
                0x0000325c                indM_get_n_i
 .text.indM_set_n_i
                0x00003260        0x4 ./src-gen/indM.o
                0x00003260                indM_set_n_i
 .text.indM_get_n_f
                0x00003264        0x4 ./src-gen/indM.o
                0x00003264                indM_get_n_f
 .text.indM_set_n_f
                0x00003268        0x4 ./src-gen/indM.o
                0x00003268                indM_set_n_f
 .text.indM_get_n_samples
                0x0000326c        0x4 ./src-gen/indM.o
                0x0000326c                indM_get_n_samples
 .text.indM_set_n_samples
                0x00003270        0x4 ./src-gen/indM.o
                0x00003270                indM_set_n_samples
 .text.indM_get_f_ireach
                0x00003274        0x6 ./src-gen/indM.o
                0x00003274                indM_get_f_ireach
 .text.indM_set_f_ireach
                0x0000327a        0x6 ./src-gen/indM.o
                0x0000327a                indM_set_f_ireach
 .text.indM_get_wrongSetting
                0x00003280        0x6 ./src-gen/indM.o
                0x00003280                indM_get_wrongSetting
 .text.indM_set_wrongSetting
                0x00003286        0x6 ./src-gen/indM.o
                0x00003286                indM_set_wrongSetting
 .text.indM_get_gain_set
                0x0000328c        0x6 ./src-gen/indM.o
                0x0000328c                indM_get_gain_set
 .text.indM_set_gain_set
                0x00003292        0x6 ./src-gen/indM.o
                0x00003292                indM_set_gain_set
 .text.indM_get_full_buffer
                0x00003298        0x6 ./src-gen/indM.o
                0x00003298                indM_get_full_buffer
 .text.indM_set_full_buffer
                0x0000329e        0x6 ./src-gen/indM.o
                0x0000329e                indM_set_full_buffer
 .text.exit     0x000032a4       0x20 c:/ti/ccsv8/tools/compiler/gcc-arm-none-eabi-7-2017-q4-major-win32/bin/../lib/gcc/arm-none-eabi/7.2.1/../../../../arm-none-eabi/lib/thumb/v7e-m/fpv4-sp/hard\libc.a(lib_a-exit.o)
                0x000032a4                exit
 .text.__libc_init_array
                0x000032c4       0x48 c:/ti/ccsv8/tools/compiler/gcc-arm-none-eabi-7-2017-q4-major-win32/bin/../lib/gcc/arm-none-eabi/7.2.1/../../../../arm-none-eabi/lib/thumb/v7e-m/fpv4-sp/hard\libc.a(lib_a-init.o)
                0x000032c4                __libc_init_array
 .text.memset   0x0000330c       0x94 c:/ti/ccsv8/tools/compiler/gcc-arm-none-eabi-7-2017-q4-major-win32/bin/../lib/gcc/arm-none-eabi/7.2.1/../../../../arm-none-eabi/lib/thumb/v7e-m/fpv4-sp/hard\libc.a(lib_a-memset.o)
                0x0000330c                memset
 .text.startup.register_fini
                0x000033a0       0x14 c:/ti/ccsv8/tools/compiler/gcc-arm-none-eabi-7-2017-q4-major-win32/bin/../lib/gcc/arm-none-eabi/7.2.1/../../../../arm-none-eabi/lib/thumb/v7e-m/fpv4-sp/hard\libc.a(lib_a-__call_atexit.o)
 .text.__call_exitprocs
                0x000033b4       0xe8 c:/ti/ccsv8/tools/compiler/gcc-arm-none-eabi-7-2017-q4-major-win32/bin/../lib/gcc/arm-none-eabi/7.2.1/../../../../arm-none-eabi/lib/thumb/v7e-m/fpv4-sp/hard\libc.a(lib_a-__call_atexit.o)
                0x000033b4                __call_exitprocs
 .text.atexit   0x0000349c        0xc c:/ti/ccsv8/tools/compiler/gcc-arm-none-eabi-7-2017-q4-major-win32/bin/../lib/gcc/arm-none-eabi/7.2.1/../../../../arm-none-eabi/lib/thumb/v7e-m/fpv4-sp/hard\libc.a(lib_a-atexit.o)
                0x0000349c                atexit
 .text.__libc_fini_array
                0x000034a8       0x34 c:/ti/ccsv8/tools/compiler/gcc-arm-none-eabi-7-2017-q4-major-win32/bin/../lib/gcc/arm-none-eabi/7.2.1/../../../../arm-none-eabi/lib/thumb/v7e-m/fpv4-sp/hard\libc.a(lib_a-fini.o)
                0x000034a8                __libc_fini_array
 .text.__retarget_lock_init
                0x000034dc        0x4 c:/ti/ccsv8/tools/compiler/gcc-arm-none-eabi-7-2017-q4-major-win32/bin/../lib/gcc/arm-none-eabi/7.2.1/../../../../arm-none-eabi/lib/thumb/v7e-m/fpv4-sp/hard\libc.a(lib_a-lock.o)
                0x000034dc                __retarget_lock_init
 .text.__retarget_lock_init_recursive
                0x000034e0        0x4 c:/ti/ccsv8/tools/compiler/gcc-arm-none-eabi-7-2017-q4-major-win32/bin/../lib/gcc/arm-none-eabi/7.2.1/../../../../arm-none-eabi/lib/thumb/v7e-m/fpv4-sp/hard\libc.a(lib_a-lock.o)
                0x000034e0                __retarget_lock_init_recursive
 .text.__retarget_lock_close
                0x000034e4        0x4 c:/ti/ccsv8/tools/compiler/gcc-arm-none-eabi-7-2017-q4-major-win32/bin/../lib/gcc/arm-none-eabi/7.2.1/../../../../arm-none-eabi/lib/thumb/v7e-m/fpv4-sp/hard\libc.a(lib_a-lock.o)
                0x000034e4                __retarget_lock_close
 .text.__retarget_lock_close_recursive
                0x000034e8        0x4 c:/ti/ccsv8/tools/compiler/gcc-arm-none-eabi-7-2017-q4-major-win32/bin/../lib/gcc/arm-none-eabi/7.2.1/../../../../arm-none-eabi/lib/thumb/v7e-m/fpv4-sp/hard\libc.a(lib_a-lock.o)
                0x000034e8                __retarget_lock_close_recursive
 .text.__retarget_lock_acquire
                0x000034ec        0x4 c:/ti/ccsv8/tools/compiler/gcc-arm-none-eabi-7-2017-q4-major-win32/bin/../lib/gcc/arm-none-eabi/7.2.1/../../../../arm-none-eabi/lib/thumb/v7e-m/fpv4-sp/hard\libc.a(lib_a-lock.o)
                0x000034ec                __retarget_lock_acquire
 .text.__retarget_lock_acquire_recursive
                0x000034f0        0x4 c:/ti/ccsv8/tools/compiler/gcc-arm-none-eabi-7-2017-q4-major-win32/bin/../lib/gcc/arm-none-eabi/7.2.1/../../../../arm-none-eabi/lib/thumb/v7e-m/fpv4-sp/hard\libc.a(lib_a-lock.o)
                0x000034f0                __retarget_lock_acquire_recursive
 .text.__retarget_lock_try_acquire
                0x000034f4        0x4 c:/ti/ccsv8/tools/compiler/gcc-arm-none-eabi-7-2017-q4-major-win32/bin/../lib/gcc/arm-none-eabi/7.2.1/../../../../arm-none-eabi/lib/thumb/v7e-m/fpv4-sp/hard\libc.a(lib_a-lock.o)
                0x000034f4                __retarget_lock_try_acquire
 .text.__retarget_lock_try_acquire_recursive
                0x000034f8        0x4 c:/ti/ccsv8/tools/compiler/gcc-arm-none-eabi-7-2017-q4-major-win32/bin/../lib/gcc/arm-none-eabi/7.2.1/../../../../arm-none-eabi/lib/thumb/v7e-m/fpv4-sp/hard\libc.a(lib_a-lock.o)
                0x000034f8                __retarget_lock_try_acquire_recursive
 .text.__retarget_lock_release
                0x000034fc        0x4 c:/ti/ccsv8/tools/compiler/gcc-arm-none-eabi-7-2017-q4-major-win32/bin/../lib/gcc/arm-none-eabi/7.2.1/../../../../arm-none-eabi/lib/thumb/v7e-m/fpv4-sp/hard\libc.a(lib_a-lock.o)
                0x000034fc                __retarget_lock_release
 .text.__retarget_lock_release_recursive
                0x00003500        0x4 c:/ti/ccsv8/tools/compiler/gcc-arm-none-eabi-7-2017-q4-major-win32/bin/../lib/gcc/arm-none-eabi/7.2.1/../../../../arm-none-eabi/lib/thumb/v7e-m/fpv4-sp/hard\libc.a(lib_a-lock.o)
                0x00003500                __retarget_lock_release_recursive
 .text.__register_exitproc
                0x00003504       0xc0 c:/ti/ccsv8/tools/compiler/gcc-arm-none-eabi-7-2017-q4-major-win32/bin/../lib/gcc/arm-none-eabi/7.2.1/../../../../arm-none-eabi/lib/thumb/v7e-m/fpv4-sp/hard\libc.a(lib_a-__atexit.o)
                0x00003504                __register_exitproc
 *fill*         0x000035c4        0x4 
 .text.floor    0x000035c8      0x110 c:/ti/ccsv8/tools/compiler/gcc-arm-none-eabi-7-2017-q4-major-win32/bin/../lib/gcc/arm-none-eabi/7.2.1/../../../../arm-none-eabi/lib/thumb/v7e-m/fpv4-sp/hard\libm.a(lib_a-s_floor.o)
                0x000035c8                floor
 .text.pow      0x000036d8      0x338 c:/ti/ccsv8/tools/compiler/gcc-arm-none-eabi-7-2017-q4-major-win32/bin/../lib/gcc/arm-none-eabi/7.2.1/../../../../arm-none-eabi/lib/thumb/v7e-m/fpv4-sp/hard\libm.a(lib_a-w_pow.o)
                0x000036d8                pow
 .text.__ieee754_pow
                0x00003a10      0xab8 c:/ti/ccsv8/tools/compiler/gcc-arm-none-eabi-7-2017-q4-major-win32/bin/../lib/gcc/arm-none-eabi/7.2.1/../../../../arm-none-eabi/lib/thumb/v7e-m/fpv4-sp/hard\libm.a(lib_a-e_pow.o)
                0x00003a10                __ieee754_pow
 .text.__ieee754_sqrt
                0x000044c8      0x194 c:/ti/ccsv8/tools/compiler/gcc-arm-none-eabi-7-2017-q4-major-win32/bin/../lib/gcc/arm-none-eabi/7.2.1/../../../../arm-none-eabi/lib/thumb/v7e-m/fpv4-sp/hard\libm.a(lib_a-e_sqrt.o)
                0x000044c8                __ieee754_sqrt
 .text.fabs     0x0000465c       0x14 c:/ti/ccsv8/tools/compiler/gcc-arm-none-eabi-7-2017-q4-major-win32/bin/../lib/gcc/arm-none-eabi/7.2.1/../../../../arm-none-eabi/lib/thumb/v7e-m/fpv4-sp/hard\libm.a(lib_a-s_fabs.o)
                0x0000465c                fabs
 .text.finite   0x00004670       0x10 c:/ti/ccsv8/tools/compiler/gcc-arm-none-eabi-7-2017-q4-major-win32/bin/../lib/gcc/arm-none-eabi/7.2.1/../../../../arm-none-eabi/lib/thumb/v7e-m/fpv4-sp/hard\libm.a(lib_a-s_finite.o)
                0x00004670                finite
 .text.matherr  0x00004680        0x4 c:/ti/ccsv8/tools/compiler/gcc-arm-none-eabi-7-2017-q4-major-win32/bin/../lib/gcc/arm-none-eabi/7.2.1/../../../../arm-none-eabi/lib/thumb/v7e-m/fpv4-sp/hard\libm.a(lib_a-s_matherr.o)
                0x00004680                matherr
 *fill*         0x00004684        0x4 
 .text.nan      0x00004688       0x10 c:/ti/ccsv8/tools/compiler/gcc-arm-none-eabi-7-2017-q4-major-win32/bin/../lib/gcc/arm-none-eabi/7.2.1/../../../../arm-none-eabi/lib/thumb/v7e-m/fpv4-sp/hard\libm.a(lib_a-s_nan.o)
                0x00004688                nan
 .text.rint     0x00004698      0x110 c:/ti/ccsv8/tools/compiler/gcc-arm-none-eabi-7-2017-q4-major-win32/bin/../lib/gcc/arm-none-eabi/7.2.1/../../../../arm-none-eabi/lib/thumb/v7e-m/fpv4-sp/hard\libm.a(lib_a-s_rint.o)
                0x00004698                rint
 .text.scalbn   0x000047a8      0x114 c:/ti/ccsv8/tools/compiler/gcc-arm-none-eabi-7-2017-q4-major-win32/bin/../lib/gcc/arm-none-eabi/7.2.1/../../../../arm-none-eabi/lib/thumb/v7e-m/fpv4-sp/hard\libm.a(lib_a-s_scalbn.o)
                0x000047a8                scalbn
 .text.copysign
                0x000048bc       0x1c c:/ti/ccsv8/tools/compiler/gcc-arm-none-eabi-7-2017-q4-major-win32/bin/../lib/gcc/arm-none-eabi/7.2.1/../../../../arm-none-eabi/lib/thumb/v7e-m/fpv4-sp/hard\libm.a(lib_a-s_copysign.o)
                0x000048bc                copysign
 .text.__errno  0x000048d8        0xc c:/ti/ccsv8/tools/compiler/gcc-arm-none-eabi-7-2017-q4-major-win32/bin/../lib/gcc/arm-none-eabi/7.2.1/../../../../arm-none-eabi/lib/thumb/v7e-m/fpv4-sp/hard\libc.a(lib_a-errno.o)
                0x000048d8                __errno
 .text.FPUEnable
                0x000048e4       0x10 C:/Users/Marco/Desktop/EjemploTivaC2/tiva/TivaWare_C_Series-2.1.4.178/driverlib/gcc\libdriver.a(fpu.o)
                0x000048e4                FPUEnable
 .text.FPUDisable
                0x000048f4       0x10 C:/Users/Marco/Desktop/EjemploTivaC2/tiva/TivaWare_C_Series-2.1.4.178/driverlib/gcc\libdriver.a(fpu.o)
                0x000048f4                FPUDisable
 .text.FPUStackingEnable
                0x00004904       0x14 C:/Users/Marco/Desktop/EjemploTivaC2/tiva/TivaWare_C_Series-2.1.4.178/driverlib/gcc\libdriver.a(fpu.o)
                0x00004904                FPUStackingEnable
 .text.FPULazyStackingEnable
                0x00004918       0x10 C:/Users/Marco/Desktop/EjemploTivaC2/tiva/TivaWare_C_Series-2.1.4.178/driverlib/gcc\libdriver.a(fpu.o)
                0x00004918                FPULazyStackingEnable
 .text.FPUStackingDisable
                0x00004928       0x10 C:/Users/Marco/Desktop/EjemploTivaC2/tiva/TivaWare_C_Series-2.1.4.178/driverlib/gcc\libdriver.a(fpu.o)
                0x00004928                FPUStackingDisable
 .text.FPUHalfPrecisionModeSet
                0x00004938       0x14 C:/Users/Marco/Desktop/EjemploTivaC2/tiva/TivaWare_C_Series-2.1.4.178/driverlib/gcc\libdriver.a(fpu.o)
                0x00004938                FPUHalfPrecisionModeSet
 .text.FPUNaNModeSet
                0x0000494c       0x14 C:/Users/Marco/Desktop/EjemploTivaC2/tiva/TivaWare_C_Series-2.1.4.178/driverlib/gcc\libdriver.a(fpu.o)
                0x0000494c                FPUNaNModeSet
 .text.FPUFlushToZeroModeSet
                0x00004960       0x14 C:/Users/Marco/Desktop/EjemploTivaC2/tiva/TivaWare_C_Series-2.1.4.178/driverlib/gcc\libdriver.a(fpu.o)
                0x00004960                FPUFlushToZeroModeSet
 .text.FPURoundingModeSet
                0x00004974       0x14 C:/Users/Marco/Desktop/EjemploTivaC2/tiva/TivaWare_C_Series-2.1.4.178/driverlib/gcc\libdriver.a(fpu.o)
                0x00004974                FPURoundingModeSet
 .text._GPIOIntNumberGet
                0x00004988       0x48 C:/Users/Marco/Desktop/EjemploTivaC2/tiva/TivaWare_C_Series-2.1.4.178/driverlib/gcc\libdriver.a(gpio.o)
 .text.GPIODirModeSet
                0x000049d0       0x2e C:/Users/Marco/Desktop/EjemploTivaC2/tiva/TivaWare_C_Series-2.1.4.178/driverlib/gcc\libdriver.a(gpio.o)
                0x000049d0                GPIODirModeSet
 .text.GPIODirModeGet
                0x000049fe       0x24 C:/Users/Marco/Desktop/EjemploTivaC2/tiva/TivaWare_C_Series-2.1.4.178/driverlib/gcc\libdriver.a(gpio.o)
                0x000049fe                GPIODirModeGet
 .text.GPIOIntTypeSet
                0x00004a22       0x5a C:/Users/Marco/Desktop/EjemploTivaC2/tiva/TivaWare_C_Series-2.1.4.178/driverlib/gcc\libdriver.a(gpio.o)
                0x00004a22                GPIOIntTypeSet
 .text.GPIOIntTypeGet
                0x00004a7c       0x4a C:/Users/Marco/Desktop/EjemploTivaC2/tiva/TivaWare_C_Series-2.1.4.178/driverlib/gcc\libdriver.a(gpio.o)
                0x00004a7c                GPIOIntTypeGet
 .text.GPIOPadConfigSet
                0x00004ac6      0x130 C:/Users/Marco/Desktop/EjemploTivaC2/tiva/TivaWare_C_Series-2.1.4.178/driverlib/gcc\libdriver.a(gpio.o)
                0x00004ac6                GPIOPadConfigSet
 .text.GPIOPadConfigGet
                0x00004bf6       0xc4 C:/Users/Marco/Desktop/EjemploTivaC2/tiva/TivaWare_C_Series-2.1.4.178/driverlib/gcc\libdriver.a(gpio.o)
                0x00004bf6                GPIOPadConfigGet
 .text.GPIOIntEnable
                0x00004cba        0xc C:/Users/Marco/Desktop/EjemploTivaC2/tiva/TivaWare_C_Series-2.1.4.178/driverlib/gcc\libdriver.a(gpio.o)
                0x00004cba                GPIOIntEnable
 .text.GPIOIntDisable
                0x00004cc6        0xe C:/Users/Marco/Desktop/EjemploTivaC2/tiva/TivaWare_C_Series-2.1.4.178/driverlib/gcc\libdriver.a(gpio.o)
                0x00004cc6                GPIOIntDisable
 .text.GPIOIntStatus
                0x00004cd4        0xe C:/Users/Marco/Desktop/EjemploTivaC2/tiva/TivaWare_C_Series-2.1.4.178/driverlib/gcc\libdriver.a(gpio.o)
                0x00004cd4                GPIOIntStatus
 .text.GPIOIntClear
                0x00004ce2        0x6 C:/Users/Marco/Desktop/EjemploTivaC2/tiva/TivaWare_C_Series-2.1.4.178/driverlib/gcc\libdriver.a(gpio.o)
                0x00004ce2                GPIOIntClear
 .text.GPIOIntRegister
                0x00004ce8       0x1a C:/Users/Marco/Desktop/EjemploTivaC2/tiva/TivaWare_C_Series-2.1.4.178/driverlib/gcc\libdriver.a(gpio.o)
                0x00004ce8                GPIOIntRegister
 .text.GPIOIntUnregister
                0x00004d02       0x16 C:/Users/Marco/Desktop/EjemploTivaC2/tiva/TivaWare_C_Series-2.1.4.178/driverlib/gcc\libdriver.a(gpio.o)
                0x00004d02                GPIOIntUnregister
 .text.GPIOIntRegisterPin
                0x00004d18       0x1e C:/Users/Marco/Desktop/EjemploTivaC2/tiva/TivaWare_C_Series-2.1.4.178/driverlib/gcc\libdriver.a(gpio.o)
                0x00004d18                GPIOIntRegisterPin
 .text.GPIOIntUnregisterPin
                0x00004d36       0x1a C:/Users/Marco/Desktop/EjemploTivaC2/tiva/TivaWare_C_Series-2.1.4.178/driverlib/gcc\libdriver.a(gpio.o)
                0x00004d36                GPIOIntUnregisterPin
 .text.GPIOPinRead
                0x00004d50        0x6 C:/Users/Marco/Desktop/EjemploTivaC2/tiva/TivaWare_C_Series-2.1.4.178/driverlib/gcc\libdriver.a(gpio.o)
                0x00004d50                GPIOPinRead
 .text.GPIOPinWrite
                0x00004d56        0x6 C:/Users/Marco/Desktop/EjemploTivaC2/tiva/TivaWare_C_Series-2.1.4.178/driverlib/gcc\libdriver.a(gpio.o)
                0x00004d56                GPIOPinWrite
 .text.GPIOPinTypeADC
                0x00004d5c       0x1c C:/Users/Marco/Desktop/EjemploTivaC2/tiva/TivaWare_C_Series-2.1.4.178/driverlib/gcc\libdriver.a(gpio.o)
                0x00004d5c                GPIOPinTypeADC
 .text.GPIOPinTypeCAN
                0x00004d78       0x1c C:/Users/Marco/Desktop/EjemploTivaC2/tiva/TivaWare_C_Series-2.1.4.178/driverlib/gcc\libdriver.a(gpio.o)
                0x00004d78                GPIOPinTypeCAN
 .text.GPIOPinTypeComparator
                0x00004d94       0x1c C:/Users/Marco/Desktop/EjemploTivaC2/tiva/TivaWare_C_Series-2.1.4.178/driverlib/gcc\libdriver.a(gpio.o)
                0x00004d94                GPIOPinTypeComparator
 .text.GPIOPinTypeComparatorOutput
                0x00004db0       0x1c C:/Users/Marco/Desktop/EjemploTivaC2/tiva/TivaWare_C_Series-2.1.4.178/driverlib/gcc\libdriver.a(gpio.o)
                0x00004db0                GPIOPinTypeComparatorOutput
 .text.GPIOPinTypeDIVSCLK
                0x00004dcc       0x1c C:/Users/Marco/Desktop/EjemploTivaC2/tiva/TivaWare_C_Series-2.1.4.178/driverlib/gcc\libdriver.a(gpio.o)
                0x00004dcc                GPIOPinTypeDIVSCLK
 .text.GPIOPinTypeEPI
                0x00004de8       0x1c C:/Users/Marco/Desktop/EjemploTivaC2/tiva/TivaWare_C_Series-2.1.4.178/driverlib/gcc\libdriver.a(gpio.o)
                0x00004de8                GPIOPinTypeEPI
 .text.GPIOPinTypeEthernetLED
                0x00004e04       0x1c C:/Users/Marco/Desktop/EjemploTivaC2/tiva/TivaWare_C_Series-2.1.4.178/driverlib/gcc\libdriver.a(gpio.o)
                0x00004e04                GPIOPinTypeEthernetLED
 .text.GPIOPinTypeEthernetMII
                0x00004e20       0x1c C:/Users/Marco/Desktop/EjemploTivaC2/tiva/TivaWare_C_Series-2.1.4.178/driverlib/gcc\libdriver.a(gpio.o)
                0x00004e20                GPIOPinTypeEthernetMII
 .text.GPIOPinTypeGPIOInput
                0x00004e3c       0x1c C:/Users/Marco/Desktop/EjemploTivaC2/tiva/TivaWare_C_Series-2.1.4.178/driverlib/gcc\libdriver.a(gpio.o)
                0x00004e3c                GPIOPinTypeGPIOInput
 .text.GPIOPinTypeGPIOOutput
                0x00004e58       0x1c C:/Users/Marco/Desktop/EjemploTivaC2/tiva/TivaWare_C_Series-2.1.4.178/driverlib/gcc\libdriver.a(gpio.o)
                0x00004e58                GPIOPinTypeGPIOOutput
 .text.GPIOPinTypeGPIOOutputOD
                0x00004e74       0x1c C:/Users/Marco/Desktop/EjemploTivaC2/tiva/TivaWare_C_Series-2.1.4.178/driverlib/gcc\libdriver.a(gpio.o)
                0x00004e74                GPIOPinTypeGPIOOutputOD
 .text.GPIOPinTypeHibernateRTCCLK
                0x00004e90       0x1c C:/Users/Marco/Desktop/EjemploTivaC2/tiva/TivaWare_C_Series-2.1.4.178/driverlib/gcc\libdriver.a(gpio.o)
                0x00004e90                GPIOPinTypeHibernateRTCCLK
 .text.GPIOPinTypeI2C
                0x00004eac       0x1c C:/Users/Marco/Desktop/EjemploTivaC2/tiva/TivaWare_C_Series-2.1.4.178/driverlib/gcc\libdriver.a(gpio.o)
                0x00004eac                GPIOPinTypeI2C
 .text.GPIOPinTypeI2CSCL
                0x00004ec8       0x1c C:/Users/Marco/Desktop/EjemploTivaC2/tiva/TivaWare_C_Series-2.1.4.178/driverlib/gcc\libdriver.a(gpio.o)
                0x00004ec8                GPIOPinTypeI2CSCL
 .text.GPIOPinTypeLCD
                0x00004ee4       0x1c C:/Users/Marco/Desktop/EjemploTivaC2/tiva/TivaWare_C_Series-2.1.4.178/driverlib/gcc\libdriver.a(gpio.o)
                0x00004ee4                GPIOPinTypeLCD
 .text.GPIOPinTypeOneWire
                0x00004f00       0x1c C:/Users/Marco/Desktop/EjemploTivaC2/tiva/TivaWare_C_Series-2.1.4.178/driverlib/gcc\libdriver.a(gpio.o)
                0x00004f00                GPIOPinTypeOneWire
 .text.GPIOPinTypePWM
                0x00004f1c       0x1c C:/Users/Marco/Desktop/EjemploTivaC2/tiva/TivaWare_C_Series-2.1.4.178/driverlib/gcc\libdriver.a(gpio.o)
                0x00004f1c                GPIOPinTypePWM
 .text.GPIOPinTypeQEI
                0x00004f38       0x1c C:/Users/Marco/Desktop/EjemploTivaC2/tiva/TivaWare_C_Series-2.1.4.178/driverlib/gcc\libdriver.a(gpio.o)
                0x00004f38                GPIOPinTypeQEI
 .text.GPIOPinTypeSSI
                0x00004f54       0x1c C:/Users/Marco/Desktop/EjemploTivaC2/tiva/TivaWare_C_Series-2.1.4.178/driverlib/gcc\libdriver.a(gpio.o)
                0x00004f54                GPIOPinTypeSSI
 .text.GPIOPinTypeTimer
                0x00004f70       0x1c C:/Users/Marco/Desktop/EjemploTivaC2/tiva/TivaWare_C_Series-2.1.4.178/driverlib/gcc\libdriver.a(gpio.o)
                0x00004f70                GPIOPinTypeTimer
 .text.GPIOPinTypeTrace
                0x00004f8c       0x1c C:/Users/Marco/Desktop/EjemploTivaC2/tiva/TivaWare_C_Series-2.1.4.178/driverlib/gcc\libdriver.a(gpio.o)
                0x00004f8c                GPIOPinTypeTrace
 .text.GPIOPinTypeUART
                0x00004fa8       0x1c C:/Users/Marco/Desktop/EjemploTivaC2/tiva/TivaWare_C_Series-2.1.4.178/driverlib/gcc\libdriver.a(gpio.o)
                0x00004fa8                GPIOPinTypeUART
 .text.GPIOPinTypeUSBAnalog
                0x00004fc4       0x1c C:/Users/Marco/Desktop/EjemploTivaC2/tiva/TivaWare_C_Series-2.1.4.178/driverlib/gcc\libdriver.a(gpio.o)
                0x00004fc4                GPIOPinTypeUSBAnalog
 .text.GPIOPinTypeUSBDigital
                0x00004fe0       0x1c C:/Users/Marco/Desktop/EjemploTivaC2/tiva/TivaWare_C_Series-2.1.4.178/driverlib/gcc\libdriver.a(gpio.o)
                0x00004fe0                GPIOPinTypeUSBDigital
 .text.GPIOPinTypeWakeHigh
                0x00004ffc       0x1e C:/Users/Marco/Desktop/EjemploTivaC2/tiva/TivaWare_C_Series-2.1.4.178/driverlib/gcc\libdriver.a(gpio.o)
                0x00004ffc                GPIOPinTypeWakeHigh
 .text.GPIOPinTypeWakeLow
                0x0000501a       0x1e C:/Users/Marco/Desktop/EjemploTivaC2/tiva/TivaWare_C_Series-2.1.4.178/driverlib/gcc\libdriver.a(gpio.o)
                0x0000501a                GPIOPinTypeWakeLow
 .text.GPIOPinWakeStatus
                0x00005038        0x6 C:/Users/Marco/Desktop/EjemploTivaC2/tiva/TivaWare_C_Series-2.1.4.178/driverlib/gcc\libdriver.a(gpio.o)
                0x00005038                GPIOPinWakeStatus
 *fill*         0x0000503e        0x2 
 .text.GPIOPinConfigure
                0x00005040       0x4c C:/Users/Marco/Desktop/EjemploTivaC2/tiva/TivaWare_C_Series-2.1.4.178/driverlib/gcc\libdriver.a(gpio.o)
                0x00005040                GPIOPinConfigure
 .text.GPIODMATriggerEnable
                0x0000508c        0xc C:/Users/Marco/Desktop/EjemploTivaC2/tiva/TivaWare_C_Series-2.1.4.178/driverlib/gcc\libdriver.a(gpio.o)
                0x0000508c                GPIODMATriggerEnable
 .text.GPIODMATriggerDisable
                0x00005098        0xe C:/Users/Marco/Desktop/EjemploTivaC2/tiva/TivaWare_C_Series-2.1.4.178/driverlib/gcc\libdriver.a(gpio.o)
                0x00005098                GPIODMATriggerDisable
 .text.GPIOADCTriggerEnable
                0x000050a6        0xc C:/Users/Marco/Desktop/EjemploTivaC2/tiva/TivaWare_C_Series-2.1.4.178/driverlib/gcc\libdriver.a(gpio.o)
                0x000050a6                GPIOADCTriggerEnable
 .text.GPIOADCTriggerDisable
                0x000050b2        0xe C:/Users/Marco/Desktop/EjemploTivaC2/tiva/TivaWare_C_Series-2.1.4.178/driverlib/gcc\libdriver.a(gpio.o)
                0x000050b2                GPIOADCTriggerDisable
 .text._IntDefaultHandler
                0x000050c0        0x2 C:/Users/Marco/Desktop/EjemploTivaC2/tiva/TivaWare_C_Series-2.1.4.178/driverlib/gcc\libdriver.a(interrupt.o)
 .text.IntMasterEnable
                0x000050c2        0xe C:/Users/Marco/Desktop/EjemploTivaC2/tiva/TivaWare_C_Series-2.1.4.178/driverlib/gcc\libdriver.a(interrupt.o)
                0x000050c2                IntMasterEnable
 .text.IntMasterDisable
                0x000050d0        0xe C:/Users/Marco/Desktop/EjemploTivaC2/tiva/TivaWare_C_Series-2.1.4.178/driverlib/gcc\libdriver.a(interrupt.o)
                0x000050d0                IntMasterDisable
 *fill*         0x000050de        0x2 
 .text.IntRegister
                0x000050e0       0x34 C:/Users/Marco/Desktop/EjemploTivaC2/tiva/TivaWare_C_Series-2.1.4.178/driverlib/gcc\libdriver.a(interrupt.o)
                0x000050e0                IntRegister
 .text.IntUnregister
                0x00005114       0x14 C:/Users/Marco/Desktop/EjemploTivaC2/tiva/TivaWare_C_Series-2.1.4.178/driverlib/gcc\libdriver.a(interrupt.o)
                0x00005114                IntUnregister
 .text.IntPriorityGroupingSet
                0x00005128       0x1c C:/Users/Marco/Desktop/EjemploTivaC2/tiva/TivaWare_C_Series-2.1.4.178/driverlib/gcc\libdriver.a(interrupt.o)
                0x00005128                IntPriorityGroupingSet
 .text.IntPriorityGroupingGet
                0x00005144       0x24 C:/Users/Marco/Desktop/EjemploTivaC2/tiva/TivaWare_C_Series-2.1.4.178/driverlib/gcc\libdriver.a(interrupt.o)
                0x00005144                IntPriorityGroupingGet
 .text.IntPrioritySet
                0x00005168       0x2c C:/Users/Marco/Desktop/EjemploTivaC2/tiva/TivaWare_C_Series-2.1.4.178/driverlib/gcc\libdriver.a(interrupt.o)
                0x00005168                IntPrioritySet
 .text.IntPriorityGet
                0x00005194       0x1c C:/Users/Marco/Desktop/EjemploTivaC2/tiva/TivaWare_C_Series-2.1.4.178/driverlib/gcc\libdriver.a(interrupt.o)
                0x00005194                IntPriorityGet
 .text.IntEnable
                0x000051b0       0x60 C:/Users/Marco/Desktop/EjemploTivaC2/tiva/TivaWare_C_Series-2.1.4.178/driverlib/gcc\libdriver.a(interrupt.o)
                0x000051b0                IntEnable
 .text.IntDisable
                0x00005210       0x60 C:/Users/Marco/Desktop/EjemploTivaC2/tiva/TivaWare_C_Series-2.1.4.178/driverlib/gcc\libdriver.a(interrupt.o)
                0x00005210                IntDisable
 .text.IntIsEnabled
                0x00005270       0x64 C:/Users/Marco/Desktop/EjemploTivaC2/tiva/TivaWare_C_Series-2.1.4.178/driverlib/gcc\libdriver.a(interrupt.o)
                0x00005270                IntIsEnabled
 .text.IntPendSet
                0x000052d4       0x50 C:/Users/Marco/Desktop/EjemploTivaC2/tiva/TivaWare_C_Series-2.1.4.178/driverlib/gcc\libdriver.a(interrupt.o)
                0x000052d4                IntPendSet
 .text.IntPendClear
                0x00005324       0x40 C:/Users/Marco/Desktop/EjemploTivaC2/tiva/TivaWare_C_Series-2.1.4.178/driverlib/gcc\libdriver.a(interrupt.o)
                0x00005324                IntPendClear
 .text.IntPriorityMaskSet
                0x00005364        0x4 C:/Users/Marco/Desktop/EjemploTivaC2/tiva/TivaWare_C_Series-2.1.4.178/driverlib/gcc\libdriver.a(interrupt.o)
                0x00005364                IntPriorityMaskSet
 .text.IntPriorityMaskGet
                0x00005368        0x4 C:/Users/Marco/Desktop/EjemploTivaC2/tiva/TivaWare_C_Series-2.1.4.178/driverlib/gcc\libdriver.a(interrupt.o)
                0x00005368                IntPriorityMaskGet
 .text.IntTrigger
                0x0000536c        0xc C:/Users/Marco/Desktop/EjemploTivaC2/tiva/TivaWare_C_Series-2.1.4.178/driverlib/gcc\libdriver.a(interrupt.o)
                0x0000536c                IntTrigger
 .text.MPUEnable
                0x00005378       0x10 C:/Users/Marco/Desktop/EjemploTivaC2/tiva/TivaWare_C_Series-2.1.4.178/driverlib/gcc\libdriver.a(mpu.o)
                0x00005378                MPUEnable
 .text.MPUDisable
                0x00005388       0x10 C:/Users/Marco/Desktop/EjemploTivaC2/tiva/TivaWare_C_Series-2.1.4.178/driverlib/gcc\libdriver.a(mpu.o)
                0x00005388                MPUDisable
 .text.MPURegionCountGet
                0x00005398       0x10 C:/Users/Marco/Desktop/EjemploTivaC2/tiva/TivaWare_C_Series-2.1.4.178/driverlib/gcc\libdriver.a(mpu.o)
                0x00005398                MPURegionCountGet
 .text.MPURegionEnable
                0x000053a8       0x14 C:/Users/Marco/Desktop/EjemploTivaC2/tiva/TivaWare_C_Series-2.1.4.178/driverlib/gcc\libdriver.a(mpu.o)
                0x000053a8                MPURegionEnable
 .text.MPURegionDisable
                0x000053bc       0x14 C:/Users/Marco/Desktop/EjemploTivaC2/tiva/TivaWare_C_Series-2.1.4.178/driverlib/gcc\libdriver.a(mpu.o)
                0x000053bc                MPURegionDisable
 .text.MPURegionSet
                0x000053d0       0x1c C:/Users/Marco/Desktop/EjemploTivaC2/tiva/TivaWare_C_Series-2.1.4.178/driverlib/gcc\libdriver.a(mpu.o)
                0x000053d0                MPURegionSet
 .text.MPURegionGet
                0x000053ec       0x20 C:/Users/Marco/Desktop/EjemploTivaC2/tiva/TivaWare_C_Series-2.1.4.178/driverlib/gcc\libdriver.a(mpu.o)
                0x000053ec                MPURegionGet
 .text.MPUIntRegister
                0x0000540c       0x14 C:/Users/Marco/Desktop/EjemploTivaC2/tiva/TivaWare_C_Series-2.1.4.178/driverlib/gcc\libdriver.a(mpu.o)
                0x0000540c                MPUIntRegister
 .text.MPUIntUnregister
                0x00005420       0x12 C:/Users/Marco/Desktop/EjemploTivaC2/tiva/TivaWare_C_Series-2.1.4.178/driverlib/gcc\libdriver.a(mpu.o)
                0x00005420                MPUIntUnregister
 *fill*         0x00005432        0x2 
 .text._SSIIntNumberGet
                0x00005434       0x44 C:/Users/Marco/Desktop/EjemploTivaC2/tiva/TivaWare_C_Series-2.1.4.178/driverlib/gcc\libdriver.a(ssi.o)
 .text.SSIConfigSetExpClk
                0x00005478       0x3c C:/Users/Marco/Desktop/EjemploTivaC2/tiva/TivaWare_C_Series-2.1.4.178/driverlib/gcc\libdriver.a(ssi.o)
                0x00005478                SSIConfigSetExpClk
 .text.SSIEnable
                0x000054b4        0xa C:/Users/Marco/Desktop/EjemploTivaC2/tiva/TivaWare_C_Series-2.1.4.178/driverlib/gcc\libdriver.a(ssi.o)
                0x000054b4                SSIEnable
 .text.SSIDisable
                0x000054be        0xa C:/Users/Marco/Desktop/EjemploTivaC2/tiva/TivaWare_C_Series-2.1.4.178/driverlib/gcc\libdriver.a(ssi.o)
                0x000054be                SSIDisable
 .text.SSIIntRegister
                0x000054c8       0x1a C:/Users/Marco/Desktop/EjemploTivaC2/tiva/TivaWare_C_Series-2.1.4.178/driverlib/gcc\libdriver.a(ssi.o)
                0x000054c8                SSIIntRegister
 .text.SSIIntUnregister
                0x000054e2       0x16 C:/Users/Marco/Desktop/EjemploTivaC2/tiva/TivaWare_C_Series-2.1.4.178/driverlib/gcc\libdriver.a(ssi.o)
                0x000054e2                SSIIntUnregister
 .text.SSIIntEnable
                0x000054f8        0x8 C:/Users/Marco/Desktop/EjemploTivaC2/tiva/TivaWare_C_Series-2.1.4.178/driverlib/gcc\libdriver.a(ssi.o)
                0x000054f8                SSIIntEnable
 .text.SSIIntDisable
                0x00005500        0xa C:/Users/Marco/Desktop/EjemploTivaC2/tiva/TivaWare_C_Series-2.1.4.178/driverlib/gcc\libdriver.a(ssi.o)
                0x00005500                SSIIntDisable
 .text.SSIIntStatus
                0x0000550a        0xa C:/Users/Marco/Desktop/EjemploTivaC2/tiva/TivaWare_C_Series-2.1.4.178/driverlib/gcc\libdriver.a(ssi.o)
                0x0000550a                SSIIntStatus
 .text.SSIIntClear
                0x00005514        0x4 C:/Users/Marco/Desktop/EjemploTivaC2/tiva/TivaWare_C_Series-2.1.4.178/driverlib/gcc\libdriver.a(ssi.o)
                0x00005514                SSIIntClear
 .text.SSIDataPut
                0x00005518        0xa C:/Users/Marco/Desktop/EjemploTivaC2/tiva/TivaWare_C_Series-2.1.4.178/driverlib/gcc\libdriver.a(ssi.o)
                0x00005518                SSIDataPut
 .text.SSIDataPutNonBlocking
                0x00005522       0x12 C:/Users/Marco/Desktop/EjemploTivaC2/tiva/TivaWare_C_Series-2.1.4.178/driverlib/gcc\libdriver.a(ssi.o)
                0x00005522                SSIDataPutNonBlocking
 .text.SSIDataGet
                0x00005534        0xc C:/Users/Marco/Desktop/EjemploTivaC2/tiva/TivaWare_C_Series-2.1.4.178/driverlib/gcc\libdriver.a(ssi.o)
                0x00005534                SSIDataGet
 .text.SSIDataGetNonBlocking
                0x00005540       0x14 C:/Users/Marco/Desktop/EjemploTivaC2/tiva/TivaWare_C_Series-2.1.4.178/driverlib/gcc\libdriver.a(ssi.o)
                0x00005540                SSIDataGetNonBlocking
 .text.SSIDMAEnable
                0x00005554        0x8 C:/Users/Marco/Desktop/EjemploTivaC2/tiva/TivaWare_C_Series-2.1.4.178/driverlib/gcc\libdriver.a(ssi.o)
                0x00005554                SSIDMAEnable
 .text.SSIDMADisable
                0x0000555c        0xa C:/Users/Marco/Desktop/EjemploTivaC2/tiva/TivaWare_C_Series-2.1.4.178/driverlib/gcc\libdriver.a(ssi.o)
                0x0000555c                SSIDMADisable
 .text.SSIBusy  0x00005566        0x8 C:/Users/Marco/Desktop/EjemploTivaC2/tiva/TivaWare_C_Series-2.1.4.178/driverlib/gcc\libdriver.a(ssi.o)
                0x00005566                SSIBusy
 .text.SSIClockSourceSet
                0x0000556e        0x6 C:/Users/Marco/Desktop/EjemploTivaC2/tiva/TivaWare_C_Series-2.1.4.178/driverlib/gcc\libdriver.a(ssi.o)
                0x0000556e                SSIClockSourceSet
 .text.SSIClockSourceGet
                0x00005574        0x6 C:/Users/Marco/Desktop/EjemploTivaC2/tiva/TivaWare_C_Series-2.1.4.178/driverlib/gcc\libdriver.a(ssi.o)
                0x00005574                SSIClockSourceGet
 .text.SSIAdvModeSet
                0x0000557a        0xc C:/Users/Marco/Desktop/EjemploTivaC2/tiva/TivaWare_C_Series-2.1.4.178/driverlib/gcc\libdriver.a(ssi.o)
                0x0000557a                SSIAdvModeSet
 .text.SSIAdvDataPutFrameEnd
                0x00005586       0x12 C:/Users/Marco/Desktop/EjemploTivaC2/tiva/TivaWare_C_Series-2.1.4.178/driverlib/gcc\libdriver.a(ssi.o)
                0x00005586                SSIAdvDataPutFrameEnd
 .text.SSIAdvDataPutFrameEndNonBlocking
                0x00005598       0x1a C:/Users/Marco/Desktop/EjemploTivaC2/tiva/TivaWare_C_Series-2.1.4.178/driverlib/gcc\libdriver.a(ssi.o)
                0x00005598                SSIAdvDataPutFrameEndNonBlocking
 .text.SSIAdvFrameHoldEnable
                0x000055b2        0xa C:/Users/Marco/Desktop/EjemploTivaC2/tiva/TivaWare_C_Series-2.1.4.178/driverlib/gcc\libdriver.a(ssi.o)
                0x000055b2                SSIAdvFrameHoldEnable
 .text.SSIAdvFrameHoldDisable
                0x000055bc        0xa C:/Users/Marco/Desktop/EjemploTivaC2/tiva/TivaWare_C_Series-2.1.4.178/driverlib/gcc\libdriver.a(ssi.o)
                0x000055bc                SSIAdvFrameHoldDisable
 *fill*         0x000055c6        0x2 
 .text._SysCtlMemTimingGet
                0x000055c8       0x24 C:/Users/Marco/Desktop/EjemploTivaC2/tiva/TivaWare_C_Series-2.1.4.178/driverlib/gcc\libdriver.a(sysctl.o)
 .text.SysCtlSRAMSizeGet
                0x000055ec       0x10 C:/Users/Marco/Desktop/EjemploTivaC2/tiva/TivaWare_C_Series-2.1.4.178/driverlib/gcc\libdriver.a(sysctl.o)
                0x000055ec                SysCtlSRAMSizeGet
 .text.SysCtlFlashSizeGet
                0x000055fc       0x3c C:/Users/Marco/Desktop/EjemploTivaC2/tiva/TivaWare_C_Series-2.1.4.178/driverlib/gcc\libdriver.a(sysctl.o)
                0x000055fc                SysCtlFlashSizeGet
 .text.SysCtlFlashSectorSizeGet
                0x00005638       0x38 C:/Users/Marco/Desktop/EjemploTivaC2/tiva/TivaWare_C_Series-2.1.4.178/driverlib/gcc\libdriver.a(sysctl.o)
                0x00005638                SysCtlFlashSectorSizeGet
 .text.SysCtlPeripheralPresent
                0x00005670       0x26 C:/Users/Marco/Desktop/EjemploTivaC2/tiva/TivaWare_C_Series-2.1.4.178/driverlib/gcc\libdriver.a(sysctl.o)
                0x00005670                SysCtlPeripheralPresent
 .text.SysCtlPeripheralReady
                0x00005696       0x26 C:/Users/Marco/Desktop/EjemploTivaC2/tiva/TivaWare_C_Series-2.1.4.178/driverlib/gcc\libdriver.a(sysctl.o)
                0x00005696                SysCtlPeripheralReady
 .text.SysCtlPeripheralPowerOn
                0x000056bc       0x22 C:/Users/Marco/Desktop/EjemploTivaC2/tiva/TivaWare_C_Series-2.1.4.178/driverlib/gcc\libdriver.a(sysctl.o)
                0x000056bc                SysCtlPeripheralPowerOn
 .text.SysCtlPeripheralPowerOff
                0x000056de       0x22 C:/Users/Marco/Desktop/EjemploTivaC2/tiva/TivaWare_C_Series-2.1.4.178/driverlib/gcc\libdriver.a(sysctl.o)
                0x000056de                SysCtlPeripheralPowerOff
 .text.SysCtlPeripheralReset
                0x00005700       0x3a C:/Users/Marco/Desktop/EjemploTivaC2/tiva/TivaWare_C_Series-2.1.4.178/driverlib/gcc\libdriver.a(sysctl.o)
                0x00005700                SysCtlPeripheralReset
 .text.SysCtlPeripheralEnable
                0x0000573a       0x22 C:/Users/Marco/Desktop/EjemploTivaC2/tiva/TivaWare_C_Series-2.1.4.178/driverlib/gcc\libdriver.a(sysctl.o)
                0x0000573a                SysCtlPeripheralEnable
 .text.SysCtlPeripheralDisable
                0x0000575c       0x22 C:/Users/Marco/Desktop/EjemploTivaC2/tiva/TivaWare_C_Series-2.1.4.178/driverlib/gcc\libdriver.a(sysctl.o)
                0x0000575c                SysCtlPeripheralDisable
 .text.SysCtlPeripheralSleepEnable
                0x0000577e       0x22 C:/Users/Marco/Desktop/EjemploTivaC2/tiva/TivaWare_C_Series-2.1.4.178/driverlib/gcc\libdriver.a(sysctl.o)
                0x0000577e                SysCtlPeripheralSleepEnable
 .text.SysCtlPeripheralSleepDisable
                0x000057a0       0x22 C:/Users/Marco/Desktop/EjemploTivaC2/tiva/TivaWare_C_Series-2.1.4.178/driverlib/gcc\libdriver.a(sysctl.o)
                0x000057a0                SysCtlPeripheralSleepDisable
 .text.SysCtlPeripheralDeepSleepEnable
                0x000057c2       0x22 C:/Users/Marco/Desktop/EjemploTivaC2/tiva/TivaWare_C_Series-2.1.4.178/driverlib/gcc\libdriver.a(sysctl.o)
                0x000057c2                SysCtlPeripheralDeepSleepEnable
 .text.SysCtlPeripheralDeepSleepDisable
                0x000057e4       0x22 C:/Users/Marco/Desktop/EjemploTivaC2/tiva/TivaWare_C_Series-2.1.4.178/driverlib/gcc\libdriver.a(sysctl.o)
                0x000057e4                SysCtlPeripheralDeepSleepDisable
 *fill*         0x00005806        0x2 
 .text.SysCtlPeripheralClockGating
                0x00005808       0x48 C:/Users/Marco/Desktop/EjemploTivaC2/tiva/TivaWare_C_Series-2.1.4.178/driverlib/gcc\libdriver.a(sysctl.o)
                0x00005808                SysCtlPeripheralClockGating
 .text.SysCtlIntRegister
                0x00005850       0x14 C:/Users/Marco/Desktop/EjemploTivaC2/tiva/TivaWare_C_Series-2.1.4.178/driverlib/gcc\libdriver.a(sysctl.o)
                0x00005850                SysCtlIntRegister
 .text.SysCtlIntUnregister
                0x00005864       0x12 C:/Users/Marco/Desktop/EjemploTivaC2/tiva/TivaWare_C_Series-2.1.4.178/driverlib/gcc\libdriver.a(sysctl.o)
                0x00005864                SysCtlIntUnregister
 *fill*         0x00005876        0x2 
 .text.SysCtlIntEnable
                0x00005878       0x10 C:/Users/Marco/Desktop/EjemploTivaC2/tiva/TivaWare_C_Series-2.1.4.178/driverlib/gcc\libdriver.a(sysctl.o)
                0x00005878                SysCtlIntEnable
 .text.SysCtlIntDisable
                0x00005888       0x10 C:/Users/Marco/Desktop/EjemploTivaC2/tiva/TivaWare_C_Series-2.1.4.178/driverlib/gcc\libdriver.a(sysctl.o)
                0x00005888                SysCtlIntDisable
 .text.SysCtlIntClear
                0x00005898        0xc C:/Users/Marco/Desktop/EjemploTivaC2/tiva/TivaWare_C_Series-2.1.4.178/driverlib/gcc\libdriver.a(sysctl.o)
                0x00005898                SysCtlIntClear
 .text.SysCtlIntStatus
                0x000058a4       0x14 C:/Users/Marco/Desktop/EjemploTivaC2/tiva/TivaWare_C_Series-2.1.4.178/driverlib/gcc\libdriver.a(sysctl.o)
                0x000058a4                SysCtlIntStatus
 .text.SysCtlLDOSleepSet
                0x000058b8        0xc C:/Users/Marco/Desktop/EjemploTivaC2/tiva/TivaWare_C_Series-2.1.4.178/driverlib/gcc\libdriver.a(sysctl.o)
                0x000058b8                SysCtlLDOSleepSet
 .text.SysCtlLDOSleepGet
                0x000058c4        0xc C:/Users/Marco/Desktop/EjemploTivaC2/tiva/TivaWare_C_Series-2.1.4.178/driverlib/gcc\libdriver.a(sysctl.o)
                0x000058c4                SysCtlLDOSleepGet
 .text.SysCtlLDODeepSleepSet
                0x000058d0        0xc C:/Users/Marco/Desktop/EjemploTivaC2/tiva/TivaWare_C_Series-2.1.4.178/driverlib/gcc\libdriver.a(sysctl.o)
                0x000058d0                SysCtlLDODeepSleepSet
 .text.SysCtlLDODeepSleepGet
                0x000058dc        0xc C:/Users/Marco/Desktop/EjemploTivaC2/tiva/TivaWare_C_Series-2.1.4.178/driverlib/gcc\libdriver.a(sysctl.o)
                0x000058dc                SysCtlLDODeepSleepGet
 .text.SysCtlSleepPowerSet
                0x000058e8        0xc C:/Users/Marco/Desktop/EjemploTivaC2/tiva/TivaWare_C_Series-2.1.4.178/driverlib/gcc\libdriver.a(sysctl.o)
                0x000058e8                SysCtlSleepPowerSet
 .text.SysCtlDeepSleepPowerSet
                0x000058f4        0xc C:/Users/Marco/Desktop/EjemploTivaC2/tiva/TivaWare_C_Series-2.1.4.178/driverlib/gcc\libdriver.a(sysctl.o)
                0x000058f4                SysCtlDeepSleepPowerSet
 .text.SysCtlReset
                0x00005900       0x10 C:/Users/Marco/Desktop/EjemploTivaC2/tiva/TivaWare_C_Series-2.1.4.178/driverlib/gcc\libdriver.a(sysctl.o)
                0x00005900                SysCtlReset
 .text.SysCtlSleep
                0x00005910        0x4 C:/Users/Marco/Desktop/EjemploTivaC2/tiva/TivaWare_C_Series-2.1.4.178/driverlib/gcc\libdriver.a(sysctl.o)
                0x00005910                SysCtlSleep
 .text.SysCtlDeepSleep
                0x00005914       0x20 C:/Users/Marco/Desktop/EjemploTivaC2/tiva/TivaWare_C_Series-2.1.4.178/driverlib/gcc\libdriver.a(sysctl.o)
                0x00005914                SysCtlDeepSleep
 .text.SysCtlResetCauseGet
                0x00005934        0xc C:/Users/Marco/Desktop/EjemploTivaC2/tiva/TivaWare_C_Series-2.1.4.178/driverlib/gcc\libdriver.a(sysctl.o)
                0x00005934                SysCtlResetCauseGet
 .text.SysCtlResetCauseClear
                0x00005940       0x10 C:/Users/Marco/Desktop/EjemploTivaC2/tiva/TivaWare_C_Series-2.1.4.178/driverlib/gcc\libdriver.a(sysctl.o)
                0x00005940                SysCtlResetCauseClear
 .text.SysCtlDelay
                0x00005950        0x8 C:/Users/Marco/Desktop/EjemploTivaC2/tiva/TivaWare_C_Series-2.1.4.178/driverlib/gcc\libdriver.a(sysctl.o)
                0x00005950                SysCtlDelay
 .text.SysCtlMOSCConfigSet
                0x00005958        0xc C:/Users/Marco/Desktop/EjemploTivaC2/tiva/TivaWare_C_Series-2.1.4.178/driverlib/gcc\libdriver.a(sysctl.o)
                0x00005958                SysCtlMOSCConfigSet
 .text.SysCtlPIOSCCalibrate
                0x00005964       0x48 C:/Users/Marco/Desktop/EjemploTivaC2/tiva/TivaWare_C_Series-2.1.4.178/driverlib/gcc\libdriver.a(sysctl.o)
                0x00005964                SysCtlPIOSCCalibrate
 .text.SysCtlResetBehaviorSet
                0x000059ac        0xc C:/Users/Marco/Desktop/EjemploTivaC2/tiva/TivaWare_C_Series-2.1.4.178/driverlib/gcc\libdriver.a(sysctl.o)
                0x000059ac                SysCtlResetBehaviorSet
 .text.SysCtlResetBehaviorGet
                0x000059b8        0xc C:/Users/Marco/Desktop/EjemploTivaC2/tiva/TivaWare_C_Series-2.1.4.178/driverlib/gcc\libdriver.a(sysctl.o)
                0x000059b8                SysCtlResetBehaviorGet
 .text.SysCtlClockFreqSet
                0x000059c4      0x248 C:/Users/Marco/Desktop/EjemploTivaC2/tiva/TivaWare_C_Series-2.1.4.178/driverlib/gcc\libdriver.a(sysctl.o)
                0x000059c4                SysCtlClockFreqSet
 .text.SysCtlClockSet
                0x00005c0c      0x11c C:/Users/Marco/Desktop/EjemploTivaC2/tiva/TivaWare_C_Series-2.1.4.178/driverlib/gcc\libdriver.a(sysctl.o)
                0x00005c0c                SysCtlClockSet
 .text.SysCtlClockGet
                0x00005d28      0x12c C:/Users/Marco/Desktop/EjemploTivaC2/tiva/TivaWare_C_Series-2.1.4.178/driverlib/gcc\libdriver.a(sysctl.o)
                0x00005d28                SysCtlClockGet
 .text.SysCtlDeepSleepClockSet
                0x00005e54        0xc C:/Users/Marco/Desktop/EjemploTivaC2/tiva/TivaWare_C_Series-2.1.4.178/driverlib/gcc\libdriver.a(sysctl.o)
                0x00005e54                SysCtlDeepSleepClockSet
 .text.SysCtlDeepSleepClockConfigSet
                0x00005e60       0x60 C:/Users/Marco/Desktop/EjemploTivaC2/tiva/TivaWare_C_Series-2.1.4.178/driverlib/gcc\libdriver.a(sysctl.o)
                0x00005e60                SysCtlDeepSleepClockConfigSet
 .text.SysCtlPWMClockSet
                0x00005ec0       0x14 C:/Users/Marco/Desktop/EjemploTivaC2/tiva/TivaWare_C_Series-2.1.4.178/driverlib/gcc\libdriver.a(sysctl.o)
                0x00005ec0                SysCtlPWMClockSet
 .text.SysCtlPWMClockGet
                0x00005ed4       0x18 C:/Users/Marco/Desktop/EjemploTivaC2/tiva/TivaWare_C_Series-2.1.4.178/driverlib/gcc\libdriver.a(sysctl.o)
                0x00005ed4                SysCtlPWMClockGet
 .text.SysCtlGPIOAHBEnable
                0x00005eec       0x18 C:/Users/Marco/Desktop/EjemploTivaC2/tiva/TivaWare_C_Series-2.1.4.178/driverlib/gcc\libdriver.a(sysctl.o)
                0x00005eec                SysCtlGPIOAHBEnable
 .text.SysCtlGPIOAHBDisable
                0x00005f04       0x1c C:/Users/Marco/Desktop/EjemploTivaC2/tiva/TivaWare_C_Series-2.1.4.178/driverlib/gcc\libdriver.a(sysctl.o)
                0x00005f04                SysCtlGPIOAHBDisable
 .text.SysCtlUSBPLLEnable
                0x00005f20       0x10 C:/Users/Marco/Desktop/EjemploTivaC2/tiva/TivaWare_C_Series-2.1.4.178/driverlib/gcc\libdriver.a(sysctl.o)
                0x00005f20                SysCtlUSBPLLEnable
 .text.SysCtlUSBPLLDisable
                0x00005f30       0x10 C:/Users/Marco/Desktop/EjemploTivaC2/tiva/TivaWare_C_Series-2.1.4.178/driverlib/gcc\libdriver.a(sysctl.o)
                0x00005f30                SysCtlUSBPLLDisable
 .text.SysCtlVoltageEventConfig
                0x00005f40        0xc C:/Users/Marco/Desktop/EjemploTivaC2/tiva/TivaWare_C_Series-2.1.4.178/driverlib/gcc\libdriver.a(sysctl.o)
                0x00005f40                SysCtlVoltageEventConfig
 .text.SysCtlVoltageEventStatus
                0x00005f4c        0xc C:/Users/Marco/Desktop/EjemploTivaC2/tiva/TivaWare_C_Series-2.1.4.178/driverlib/gcc\libdriver.a(sysctl.o)
                0x00005f4c                SysCtlVoltageEventStatus
 .text.SysCtlVoltageEventClear
                0x00005f58       0x10 C:/Users/Marco/Desktop/EjemploTivaC2/tiva/TivaWare_C_Series-2.1.4.178/driverlib/gcc\libdriver.a(sysctl.o)
                0x00005f58                SysCtlVoltageEventClear
 .text.SysCtlVCOGet
                0x00005f68       0x78 C:/Users/Marco/Desktop/EjemploTivaC2/tiva/TivaWare_C_Series-2.1.4.178/driverlib/gcc\libdriver.a(sysctl.o)
                0x00005f68                SysCtlVCOGet
 .text.SysCtlNMIStatus
                0x00005fe0        0xc C:/Users/Marco/Desktop/EjemploTivaC2/tiva/TivaWare_C_Series-2.1.4.178/driverlib/gcc\libdriver.a(sysctl.o)
                0x00005fe0                SysCtlNMIStatus
 .text.SysCtlNMIClear
                0x00005fec       0x10 C:/Users/Marco/Desktop/EjemploTivaC2/tiva/TivaWare_C_Series-2.1.4.178/driverlib/gcc\libdriver.a(sysctl.o)
                0x00005fec                SysCtlNMIClear
 .text.SysCtlClockOutConfig
                0x00005ffc       0x10 C:/Users/Marco/Desktop/EjemploTivaC2/tiva/TivaWare_C_Series-2.1.4.178/driverlib/gcc\libdriver.a(sysctl.o)
                0x00005ffc                SysCtlClockOutConfig
 .text.SysCtlAltClkConfig
                0x0000600c        0xc C:/Users/Marco/Desktop/EjemploTivaC2/tiva/TivaWare_C_Series-2.1.4.178/driverlib/gcc\libdriver.a(sysctl.o)
                0x0000600c                SysCtlAltClkConfig
 .text.SysTickEnable
                0x00006018       0x10 C:/Users/Marco/Desktop/EjemploTivaC2/tiva/TivaWare_C_Series-2.1.4.178/driverlib/gcc\libdriver.a(systick.o)
                0x00006018                SysTickEnable
 .text.SysTickDisable
                0x00006028       0x10 C:/Users/Marco/Desktop/EjemploTivaC2/tiva/TivaWare_C_Series-2.1.4.178/driverlib/gcc\libdriver.a(systick.o)
                0x00006028                SysTickDisable
 .text.SysTickIntRegister
                0x00006038       0x1c C:/Users/Marco/Desktop/EjemploTivaC2/tiva/TivaWare_C_Series-2.1.4.178/driverlib/gcc\libdriver.a(systick.o)
                0x00006038                SysTickIntRegister
 .text.SysTickIntUnregister
                0x00006054       0x14 C:/Users/Marco/Desktop/EjemploTivaC2/tiva/TivaWare_C_Series-2.1.4.178/driverlib/gcc\libdriver.a(systick.o)
                0x00006054                SysTickIntUnregister
 .text.SysTickIntEnable
                0x00006068       0x10 C:/Users/Marco/Desktop/EjemploTivaC2/tiva/TivaWare_C_Series-2.1.4.178/driverlib/gcc\libdriver.a(systick.o)
                0x00006068                SysTickIntEnable
 .text.SysTickIntDisable
                0x00006078       0x10 C:/Users/Marco/Desktop/EjemploTivaC2/tiva/TivaWare_C_Series-2.1.4.178/driverlib/gcc\libdriver.a(systick.o)
                0x00006078                SysTickIntDisable
 .text.SysTickPeriodSet
                0x00006088        0xc C:/Users/Marco/Desktop/EjemploTivaC2/tiva/TivaWare_C_Series-2.1.4.178/driverlib/gcc\libdriver.a(systick.o)
                0x00006088                SysTickPeriodSet
 .text.SysTickPeriodGet
                0x00006094        0xc C:/Users/Marco/Desktop/EjemploTivaC2/tiva/TivaWare_C_Series-2.1.4.178/driverlib/gcc\libdriver.a(systick.o)
                0x00006094                SysTickPeriodGet
 .text.SysTickValueGet
                0x000060a0        0xc C:/Users/Marco/Desktop/EjemploTivaC2/tiva/TivaWare_C_Series-2.1.4.178/driverlib/gcc\libdriver.a(systick.o)
                0x000060a0                SysTickValueGet
 .text._UARTIntNumberGet
                0x000060ac       0x44 C:/Users/Marco/Desktop/EjemploTivaC2/tiva/TivaWare_C_Series-2.1.4.178/driverlib/gcc\libdriver.a(uart.o)
 .text.UARTParityModeSet
                0x000060f0        0xc C:/Users/Marco/Desktop/EjemploTivaC2/tiva/TivaWare_C_Series-2.1.4.178/driverlib/gcc\libdriver.a(uart.o)
                0x000060f0                UARTParityModeSet
 .text.UARTParityModeGet
                0x000060fc        0x8 C:/Users/Marco/Desktop/EjemploTivaC2/tiva/TivaWare_C_Series-2.1.4.178/driverlib/gcc\libdriver.a(uart.o)
                0x000060fc                UARTParityModeGet
 .text.UARTFIFOLevelSet
                0x00006104        0x6 C:/Users/Marco/Desktop/EjemploTivaC2/tiva/TivaWare_C_Series-2.1.4.178/driverlib/gcc\libdriver.a(uart.o)
                0x00006104                UARTFIFOLevelSet
 .text.UARTFIFOLevelGet
                0x0000610a       0x10 C:/Users/Marco/Desktop/EjemploTivaC2/tiva/TivaWare_C_Series-2.1.4.178/driverlib/gcc\libdriver.a(uart.o)
                0x0000610a                UARTFIFOLevelGet
 .text.UARTConfigGetExpClk
                0x0000611a       0x28 C:/Users/Marco/Desktop/EjemploTivaC2/tiva/TivaWare_C_Series-2.1.4.178/driverlib/gcc\libdriver.a(uart.o)
                0x0000611a                UARTConfigGetExpClk
 .text.UARTEnable
                0x00006142       0x16 C:/Users/Marco/Desktop/EjemploTivaC2/tiva/TivaWare_C_Series-2.1.4.178/driverlib/gcc\libdriver.a(uart.o)
                0x00006142                UARTEnable
 .text.UARTDisable
                0x00006158       0x1c C:/Users/Marco/Desktop/EjemploTivaC2/tiva/TivaWare_C_Series-2.1.4.178/driverlib/gcc\libdriver.a(uart.o)
                0x00006158                UARTDisable
 .text.UARTConfigSetExpClk
                0x00006174       0x48 C:/Users/Marco/Desktop/EjemploTivaC2/tiva/TivaWare_C_Series-2.1.4.178/driverlib/gcc\libdriver.a(uart.o)
                0x00006174                UARTConfigSetExpClk
 .text.UARTFIFOEnable
                0x000061bc        0xa C:/Users/Marco/Desktop/EjemploTivaC2/tiva/TivaWare_C_Series-2.1.4.178/driverlib/gcc\libdriver.a(uart.o)
                0x000061bc                UARTFIFOEnable
 .text.UARTFIFODisable
                0x000061c6        0xa C:/Users/Marco/Desktop/EjemploTivaC2/tiva/TivaWare_C_Series-2.1.4.178/driverlib/gcc\libdriver.a(uart.o)
                0x000061c6                UARTFIFODisable
 .text.UARTEnableSIR
                0x000061d0       0x12 C:/Users/Marco/Desktop/EjemploTivaC2/tiva/TivaWare_C_Series-2.1.4.178/driverlib/gcc\libdriver.a(uart.o)
                0x000061d0                UARTEnableSIR
 .text.UARTDisableSIR
                0x000061e2        0xa C:/Users/Marco/Desktop/EjemploTivaC2/tiva/TivaWare_C_Series-2.1.4.178/driverlib/gcc\libdriver.a(uart.o)
                0x000061e2                UARTDisableSIR
 .text.UARTSmartCardEnable
                0x000061ec       0x16 C:/Users/Marco/Desktop/EjemploTivaC2/tiva/TivaWare_C_Series-2.1.4.178/driverlib/gcc\libdriver.a(uart.o)
                0x000061ec                UARTSmartCardEnable
 .text.UARTSmartCardDisable
                0x00006202        0xa C:/Users/Marco/Desktop/EjemploTivaC2/tiva/TivaWare_C_Series-2.1.4.178/driverlib/gcc\libdriver.a(uart.o)
                0x00006202                UARTSmartCardDisable
 .text.UARTModemControlSet
                0x0000620c        0xc C:/Users/Marco/Desktop/EjemploTivaC2/tiva/TivaWare_C_Series-2.1.4.178/driverlib/gcc\libdriver.a(uart.o)
                0x0000620c                UARTModemControlSet
 .text.UARTModemControlClear
                0x00006218        0xe C:/Users/Marco/Desktop/EjemploTivaC2/tiva/TivaWare_C_Series-2.1.4.178/driverlib/gcc\libdriver.a(uart.o)
                0x00006218                UARTModemControlClear
 .text.UARTModemControlGet
                0x00006226        0x8 C:/Users/Marco/Desktop/EjemploTivaC2/tiva/TivaWare_C_Series-2.1.4.178/driverlib/gcc\libdriver.a(uart.o)
                0x00006226                UARTModemControlGet
 .text.UARTModemStatusGet
                0x0000622e        0xa C:/Users/Marco/Desktop/EjemploTivaC2/tiva/TivaWare_C_Series-2.1.4.178/driverlib/gcc\libdriver.a(uart.o)
                0x0000622e                UARTModemStatusGet
 .text.UARTFlowControlSet
                0x00006238        0xc C:/Users/Marco/Desktop/EjemploTivaC2/tiva/TivaWare_C_Series-2.1.4.178/driverlib/gcc\libdriver.a(uart.o)
                0x00006238                UARTFlowControlSet
 .text.UARTFlowControlGet
                0x00006244        0x8 C:/Users/Marco/Desktop/EjemploTivaC2/tiva/TivaWare_C_Series-2.1.4.178/driverlib/gcc\libdriver.a(uart.o)
                0x00006244                UARTFlowControlGet
 .text.UARTTxIntModeSet
                0x0000624c        0xc C:/Users/Marco/Desktop/EjemploTivaC2/tiva/TivaWare_C_Series-2.1.4.178/driverlib/gcc\libdriver.a(uart.o)
                0x0000624c                UARTTxIntModeSet
 .text.UARTTxIntModeGet
                0x00006258        0x8 C:/Users/Marco/Desktop/EjemploTivaC2/tiva/TivaWare_C_Series-2.1.4.178/driverlib/gcc\libdriver.a(uart.o)
                0x00006258                UARTTxIntModeGet
 .text.UARTCharsAvail
                0x00006260        0xc C:/Users/Marco/Desktop/EjemploTivaC2/tiva/TivaWare_C_Series-2.1.4.178/driverlib/gcc\libdriver.a(uart.o)
                0x00006260                UARTCharsAvail
 .text.UARTSpaceAvail
                0x0000626c        0xc C:/Users/Marco/Desktop/EjemploTivaC2/tiva/TivaWare_C_Series-2.1.4.178/driverlib/gcc\libdriver.a(uart.o)
                0x0000626c                UARTSpaceAvail
 .text.UARTCharGetNonBlocking
                0x00006278        0xe C:/Users/Marco/Desktop/EjemploTivaC2/tiva/TivaWare_C_Series-2.1.4.178/driverlib/gcc\libdriver.a(uart.o)
                0x00006278                UARTCharGetNonBlocking
 .text.UARTCharGet
                0x00006286        0xa C:/Users/Marco/Desktop/EjemploTivaC2/tiva/TivaWare_C_Series-2.1.4.178/driverlib/gcc\libdriver.a(uart.o)
                0x00006286                UARTCharGet
 .text.UARTCharPutNonBlocking
                0x00006290       0x10 C:/Users/Marco/Desktop/EjemploTivaC2/tiva/TivaWare_C_Series-2.1.4.178/driverlib/gcc\libdriver.a(uart.o)
                0x00006290                UARTCharPutNonBlocking
 .text.UARTCharPut
                0x000062a0        0xa C:/Users/Marco/Desktop/EjemploTivaC2/tiva/TivaWare_C_Series-2.1.4.178/driverlib/gcc\libdriver.a(uart.o)
                0x000062a0                UARTCharPut
 .text.UARTBreakCtl
                0x000062aa       0x16 C:/Users/Marco/Desktop/EjemploTivaC2/tiva/TivaWare_C_Series-2.1.4.178/driverlib/gcc\libdriver.a(uart.o)
                0x000062aa                UARTBreakCtl
 .text.UARTBusy
                0x000062c0        0x8 C:/Users/Marco/Desktop/EjemploTivaC2/tiva/TivaWare_C_Series-2.1.4.178/driverlib/gcc\libdriver.a(uart.o)
                0x000062c0                UARTBusy
 .text.UARTIntRegister
                0x000062c8       0x1a C:/Users/Marco/Desktop/EjemploTivaC2/tiva/TivaWare_C_Series-2.1.4.178/driverlib/gcc\libdriver.a(uart.o)
                0x000062c8                UARTIntRegister
 .text.UARTIntUnregister
                0x000062e2       0x16 C:/Users/Marco/Desktop/EjemploTivaC2/tiva/TivaWare_C_Series-2.1.4.178/driverlib/gcc\libdriver.a(uart.o)
                0x000062e2                UARTIntUnregister
 .text.UARTIntEnable
                0x000062f8        0x8 C:/Users/Marco/Desktop/EjemploTivaC2/tiva/TivaWare_C_Series-2.1.4.178/driverlib/gcc\libdriver.a(uart.o)
                0x000062f8                UARTIntEnable
 .text.UARTIntDisable
                0x00006300        0xa C:/Users/Marco/Desktop/EjemploTivaC2/tiva/TivaWare_C_Series-2.1.4.178/driverlib/gcc\libdriver.a(uart.o)
                0x00006300                UARTIntDisable
 .text.UARTIntStatus
                0x0000630a        0xa C:/Users/Marco/Desktop/EjemploTivaC2/tiva/TivaWare_C_Series-2.1.4.178/driverlib/gcc\libdriver.a(uart.o)
                0x0000630a                UARTIntStatus
 .text.UARTIntClear
                0x00006314        0x4 C:/Users/Marco/Desktop/EjemploTivaC2/tiva/TivaWare_C_Series-2.1.4.178/driverlib/gcc\libdriver.a(uart.o)
                0x00006314                UARTIntClear
 .text.UARTDMAEnable
                0x00006318        0x8 C:/Users/Marco/Desktop/EjemploTivaC2/tiva/TivaWare_C_Series-2.1.4.178/driverlib/gcc\libdriver.a(uart.o)
                0x00006318                UARTDMAEnable
 .text.UARTDMADisable
                0x00006320        0xa C:/Users/Marco/Desktop/EjemploTivaC2/tiva/TivaWare_C_Series-2.1.4.178/driverlib/gcc\libdriver.a(uart.o)
                0x00006320                UARTDMADisable
 .text.UARTRxErrorGet
                0x0000632a        0x8 C:/Users/Marco/Desktop/EjemploTivaC2/tiva/TivaWare_C_Series-2.1.4.178/driverlib/gcc\libdriver.a(uart.o)
                0x0000632a                UARTRxErrorGet
 .text.UARTRxErrorClear
                0x00006332        0x6 C:/Users/Marco/Desktop/EjemploTivaC2/tiva/TivaWare_C_Series-2.1.4.178/driverlib/gcc\libdriver.a(uart.o)
                0x00006332                UARTRxErrorClear
 .text.UARTClockSourceSet
                0x00006338        0x6 C:/Users/Marco/Desktop/EjemploTivaC2/tiva/TivaWare_C_Series-2.1.4.178/driverlib/gcc\libdriver.a(uart.o)
                0x00006338                UARTClockSourceSet
 .text.UARTClockSourceGet
                0x0000633e        0x6 C:/Users/Marco/Desktop/EjemploTivaC2/tiva/TivaWare_C_Series-2.1.4.178/driverlib/gcc\libdriver.a(uart.o)
                0x0000633e                UARTClockSourceGet
 .text.UART9BitEnable
                0x00006344        0xe C:/Users/Marco/Desktop/EjemploTivaC2/tiva/TivaWare_C_Series-2.1.4.178/driverlib/gcc\libdriver.a(uart.o)
                0x00006344                UART9BitEnable
 .text.UART9BitDisable
                0x00006352        0xe C:/Users/Marco/Desktop/EjemploTivaC2/tiva/TivaWare_C_Series-2.1.4.178/driverlib/gcc\libdriver.a(uart.o)
                0x00006352                UART9BitDisable
 .text.UART9BitAddrSet
                0x00006360        0xa C:/Users/Marco/Desktop/EjemploTivaC2/tiva/TivaWare_C_Series-2.1.4.178/driverlib/gcc\libdriver.a(uart.o)
                0x00006360                UART9BitAddrSet
 .text.UART9BitAddrSend
                0x0000636a       0x2c C:/Users/Marco/Desktop/EjemploTivaC2/tiva/TivaWare_C_Series-2.1.4.178/driverlib/gcc\libdriver.a(uart.o)
                0x0000636a                UART9BitAddrSend
 .text.UARTLoopbackEnable
                0x00006396        0xa C:/Users/Marco/Desktop/EjemploTivaC2/tiva/TivaWare_C_Series-2.1.4.178/driverlib/gcc\libdriver.a(uart.o)
                0x00006396                UARTLoopbackEnable
 .text.CPUcpsid
                0x000063a0        0x8 C:/Users/Marco/Desktop/EjemploTivaC2/tiva/TivaWare_C_Series-2.1.4.178/driverlib/gcc\libdriver.a(cpu.o)
                0x000063a0                CPUcpsid
 .text.CPUprimask
                0x000063a8        0x6 C:/Users/Marco/Desktop/EjemploTivaC2/tiva/TivaWare_C_Series-2.1.4.178/driverlib/gcc\libdriver.a(cpu.o)
                0x000063a8                CPUprimask
 .text.CPUcpsie
                0x000063ae        0x8 C:/Users/Marco/Desktop/EjemploTivaC2/tiva/TivaWare_C_Series-2.1.4.178/driverlib/gcc\libdriver.a(cpu.o)
                0x000063ae                CPUcpsie
 .text.CPUwfi   0x000063b6        0x4 C:/Users/Marco/Desktop/EjemploTivaC2/tiva/TivaWare_C_Series-2.1.4.178/driverlib/gcc\libdriver.a(cpu.o)
                0x000063b6                CPUwfi
 .text.CPUbasepriSet
                0x000063ba        0x6 C:/Users/Marco/Desktop/EjemploTivaC2/tiva/TivaWare_C_Series-2.1.4.178/driverlib/gcc\libdriver.a(cpu.o)
                0x000063ba                CPUbasepriSet
 .text.CPUbasepriGet
                0x000063c0        0x6 C:/Users/Marco/Desktop/EjemploTivaC2/tiva/TivaWare_C_Series-2.1.4.178/driverlib/gcc\libdriver.a(cpu.o)
                0x000063c0                CPUbasepriGet
 *fill*         0x000063c6        0x2 
 .text._exit    0x000063c8        0x4 c:/ti/ccsv8/tools/compiler/gcc-arm-none-eabi-7-2017-q4-major-win32/bin/../lib/gcc/arm-none-eabi/7.2.1/../../../../arm-none-eabi/lib/thumb/v7e-m/fpv4-sp/hard\libnosys.a(_exit.o)
                0x000063c8                _exit
 *(.rodata)
 *(.rodata*)
 .rodata.D2     0x000063cc        0x4 ./Control_Res.o
                0x000063cc                D2
 .rodata.N1     0x000063d0        0x4 ./Control_Res.o
                0x000063d0                N1
 .rodata.N21    0x000063d4        0x4 ./Control_Res.o
                0x000063d4                N21
 .rodata.N22    0x000063d8        0x4 ./Control_Res.o
                0x000063d8                N22
 .rodata.Reset_Handler.str1.4
                0x000063dc        0xe ./startup_tm4c_gnu.o
 *fill*         0x000063ea        0x2 
 .rodata.UARTgets.str1.4
                0x000063ec        0x7 ./uartstdio.o
 *fill*         0x000063f3        0x1 
 .rodata.UARTvprintf.str1.4
                0x000063f4       0x1e ./uartstdio.o
 *fill*         0x00006412        0x2 
 .rodata.g_ui32UARTBase
                0x00006414        0xc ./uartstdio.o
 .rodata.g_ui32UARTPeriph
                0x00006420        0xc ./uartstdio.o
 .rodata.INDM_INDMINTERNAL_MAX_RUNS
                0x0000642c        0x4 ./src-gen/indM.o
                0x0000642c                INDM_INDMINTERNAL_MAX_RUNS
 .rodata.INDM_INDMINTERNAL_PERIOD_SYSTICK_MAIN
                0x00006430        0x4 ./src-gen/indM.o
                0x00006430                INDM_INDMINTERNAL_PERIOD_SYSTICK_MAIN
 .rodata.INDM_INDMINTERNAL_PERIOD_SYSTICK_RES
                0x00006434        0x4 ./src-gen/indM.o
                0x00006434                INDM_INDMINTERNAL_PERIOD_SYSTICK_RES
 .rodata.INDM_INDMINTERNAL_PERIOD_SYSTICK_SET
                0x00006438        0x4 ./src-gen/indM.o
                0x00006438                INDM_INDMINTERNAL_PERIOD_SYSTICK_SET
 .rodata.INDM_INDMINTERNAL_SAMPLING_PERIOD
                0x0000643c        0x4 ./src-gen/indM.o
                0x0000643c                INDM_INDMINTERNAL_SAMPLING_PERIOD
 .rodata._global_impure_ptr
                0x00006440        0x4 c:/ti/ccsv8/tools/compiler/gcc-arm-none-eabi-7-2017-q4-major-win32/bin/../lib/gcc/arm-none-eabi/7.2.1/../../../../arm-none-eabi/lib/thumb/v7e-m/fpv4-sp/hard\libc.a(lib_a-impure.o)
                0x00006440                _global_impure_ptr
 .rodata.pow.str1.4
                0x00006444        0x4 c:/ti/ccsv8/tools/compiler/gcc-arm-none-eabi-7-2017-q4-major-win32/bin/../lib/gcc/arm-none-eabi/7.2.1/../../../../arm-none-eabi/lib/thumb/v7e-m/fpv4-sp/hard\libm.a(lib_a-w_pow.o)
 .rodata.__ieee754_pow.str1.4
                0x00006448        0x4 c:/ti/ccsv8/tools/compiler/gcc-arm-none-eabi-7-2017-q4-major-win32/bin/../lib/gcc/arm-none-eabi/7.2.1/../../../../arm-none-eabi/lib/thumb/v7e-m/fpv4-sp/hard\libm.a(lib_a-e_pow.o)
                                  0x1 (size before relaxing)
 .rodata.TWO52  0x00006448       0x10 c:/ti/ccsv8/tools/compiler/gcc-arm-none-eabi-7-2017-q4-major-win32/bin/../lib/gcc/arm-none-eabi/7.2.1/../../../../arm-none-eabi/lib/thumb/v7e-m/fpv4-sp/hard\libm.a(lib_a-s_rint.o)
 .rodata.g_ppui32GPIOIntMapSnowflake
                0x00006458       0xd8 C:/Users/Marco/Desktop/EjemploTivaC2/tiva/TivaWare_C_Series-2.1.4.178/driverlib/gcc\libdriver.a(gpio.o)
 .rodata.g_pui32GPIOBaseAddrs
                0x00006530       0x90 C:/Users/Marco/Desktop/EjemploTivaC2/tiva/TivaWare_C_Series-2.1.4.178/driverlib/gcc\libdriver.a(gpio.o)
 .rodata.g_ppui32GPIOIntMapBlizzard
                0x000065c0       0xc0 C:/Users/Marco/Desktop/EjemploTivaC2/tiva/TivaWare_C_Series-2.1.4.178/driverlib/gcc\libdriver.a(gpio.o)
 .rodata.g_pui32Priority
                0x00006680       0x20 C:/Users/Marco/Desktop/EjemploTivaC2/tiva/TivaWare_C_Series-2.1.4.178/driverlib/gcc\libdriver.a(interrupt.o)
 .rodata.g_pui32Dii16Regs
                0x000066a0       0x14 C:/Users/Marco/Desktop/EjemploTivaC2/tiva/TivaWare_C_Series-2.1.4.178/driverlib/gcc\libdriver.a(interrupt.o)
 .rodata.g_pui32PendRegs
                0x000066b4       0x14 C:/Users/Marco/Desktop/EjemploTivaC2/tiva/TivaWare_C_Series-2.1.4.178/driverlib/gcc\libdriver.a(interrupt.o)
 .rodata.g_pui32Regs
                0x000066c8       0x9c C:/Users/Marco/Desktop/EjemploTivaC2/tiva/TivaWare_C_Series-2.1.4.178/driverlib/gcc\libdriver.a(interrupt.o)
 .rodata.g_pui32EnRegs
                0x00006764       0x14 C:/Users/Marco/Desktop/EjemploTivaC2/tiva/TivaWare_C_Series-2.1.4.178/driverlib/gcc\libdriver.a(interrupt.o)
 .rodata.g_pui32UnpendRegs
                0x00006778       0x14 C:/Users/Marco/Desktop/EjemploTivaC2/tiva/TivaWare_C_Series-2.1.4.178/driverlib/gcc\libdriver.a(interrupt.o)
 .rodata.g_ppui32SSIIntMap
                0x0000678c       0x20 C:/Users/Marco/Desktop/EjemploTivaC2/tiva/TivaWare_C_Series-2.1.4.178/driverlib/gcc\libdriver.a(ssi.o)
 .rodata.g_ppui32SSIIntMapSnowflake
                0x000067ac       0x20 C:/Users/Marco/Desktop/EjemploTivaC2/tiva/TivaWare_C_Series-2.1.4.178/driverlib/gcc\libdriver.a(ssi.o)
 .rodata.g_pppui32XTALtoVCO
                0x000067cc      0x1b0 C:/Users/Marco/Desktop/EjemploTivaC2/tiva/TivaWare_C_Series-2.1.4.178/driverlib/gcc\libdriver.a(sysctl.o)
 .rodata.g_pui32VCOFrequencies
                0x0000697c        0x8 C:/Users/Marco/Desktop/EjemploTivaC2/tiva/TivaWare_C_Series-2.1.4.178/driverlib/gcc\libdriver.a(sysctl.o)
 .rodata.g_sXTALtoMEMTIM
                0x00006984       0x30 C:/Users/Marco/Desktop/EjemploTivaC2/tiva/TivaWare_C_Series-2.1.4.178/driverlib/gcc\libdriver.a(sysctl.o)
 .rodata.g_pui32Xtals
                0x000069b4       0x6c C:/Users/Marco/Desktop/EjemploTivaC2/tiva/TivaWare_C_Series-2.1.4.178/driverlib/gcc\libdriver.a(sysctl.o)
 .rodata.g_ppui32UARTIntMap
                0x00006a20       0x40 C:/Users/Marco/Desktop/EjemploTivaC2/tiva/TivaWare_C_Series-2.1.4.178/driverlib/gcc\libdriver.a(uart.o)
 .rodata.g_ppui32UARTIntMapSnowflake
                0x00006a60       0x40 C:/Users/Marco/Desktop/EjemploTivaC2/tiva/TivaWare_C_Series-2.1.4.178/driverlib/gcc\libdriver.a(uart.o)
 *(.init)
 .init          0x00006aa0        0x4 c:/ti/ccsv8/tools/compiler/gcc-arm-none-eabi-7-2017-q4-major-win32/bin/../lib/gcc/arm-none-eabi/7.2.1/thumb/v7e-m/fpv4-sp/hard/crti.o
                0x00006aa0                _init
 .init          0x00006aa4        0x8 c:/ti/ccsv8/tools/compiler/gcc-arm-none-eabi-7-2017-q4-major-win32/bin/../lib/gcc/arm-none-eabi/7.2.1/thumb/v7e-m/fpv4-sp/hard/crtn.o
 *(.fini)
 .fini          0x00006aac        0x4 c:/ti/ccsv8/tools/compiler/gcc-arm-none-eabi-7-2017-q4-major-win32/bin/../lib/gcc/arm-none-eabi/7.2.1/thumb/v7e-m/fpv4-sp/hard/crti.o
                0x00006aac                _fini
 .fini          0x00006ab0        0x8 c:/ti/ccsv8/tools/compiler/gcc-arm-none-eabi-7-2017-q4-major-win32/bin/../lib/gcc/arm-none-eabi/7.2.1/thumb/v7e-m/fpv4-sp/hard/crtn.o
                0x00006ab8                . = ALIGN (0x4)

.glue_7         0x00006ab8        0x0
 .glue_7        0x00006ab8        0x0 linker stubs

.glue_7t        0x00006ab8        0x0
 .glue_7t       0x00006ab8        0x0 linker stubs

.vfp11_veneer   0x00006ab8        0x0
 .vfp11_veneer  0x00006ab8        0x0 linker stubs

.v4_bx          0x00006ab8        0x0
 .v4_bx         0x00006ab8        0x0 linker stubs

.iplt           0x00006ab8        0x0
 .iplt          0x00006ab8        0x0 c:/ti/ccsv8/tools/compiler/gcc-arm-none-eabi-7-2017-q4-major-win32/bin/../lib/gcc/arm-none-eabi/7.2.1/thumb/v7e-m/fpv4-sp/hard/crtbegin.o

.rel.dyn        0x00006ab8        0x0
 .rel.iplt      0x00006ab8        0x0 c:/ti/ccsv8/tools/compiler/gcc-arm-none-eabi-7-2017-q4-major-win32/bin/../lib/gcc/arm-none-eabi/7.2.1/thumb/v7e-m/fpv4-sp/hard/crtbegin.o

.preinit_array  0x00006ab8        0x0
                0x00006ab8                PROVIDE (__preinit_array_start, .)
 *(.preinit_array*)
                0x00006ab8                PROVIDE (__preinit_array_end, .)

.init_array     0x00006ab8        0x8
                0x00006ab8                PROVIDE (__init_array_start, .)
 *(SORT_BY_NAME(.init_array.*))
 .init_array.00000
                0x00006ab8        0x4 c:/ti/ccsv8/tools/compiler/gcc-arm-none-eabi-7-2017-q4-major-win32/bin/../lib/gcc/arm-none-eabi/7.2.1/../../../../arm-none-eabi/lib/thumb/v7e-m/fpv4-sp/hard\libc.a(lib_a-__call_atexit.o)
 *(.init_array*)
 .init_array    0x00006abc        0x4 c:/ti/ccsv8/tools/compiler/gcc-arm-none-eabi-7-2017-q4-major-win32/bin/../lib/gcc/arm-none-eabi/7.2.1/thumb/v7e-m/fpv4-sp/hard/crtbegin.o
                0x00006ac0                PROVIDE (__init_array_end, .)

.fini_array     0x00006ac0        0x4
                0x00006ac0                PROVIDE (__fini_array_start, .)
 *(.fini_array*)
 .fini_array    0x00006ac0        0x4 c:/ti/ccsv8/tools/compiler/gcc-arm-none-eabi-7-2017-q4-major-win32/bin/../lib/gcc/arm-none-eabi/7.2.1/thumb/v7e-m/fpv4-sp/hard/crtbegin.o
 *(SORT_BY_NAME(.fini_array.*))
                0x00006ac4                PROVIDE (__fini_array_end, .)
                0x00006ac4                _etext = .

.stack          0x20000000      0x200
                0x20000000                __stack_start__ = .
                0x20000200                . = (. + STACK_SIZE)
 *fill*         0x20000000      0x200 
                0x20000200                . = ALIGN (0x4)
                0x20000200                __stack_end__ = .

.data           0x20000200      0x488 load address 0x00006ac4
                0x00006ac4                __data_load = LOADADDR (.data)
                0x20000200                __data_start = .
 *(.data)
 .data          0x20000200        0x0 c:/ti/ccsv8/tools/compiler/gcc-arm-none-eabi-7-2017-q4-major-win32/bin/../lib/gcc/arm-none-eabi/7.2.1/thumb/v7e-m/fpv4-sp/hard/crti.o
 .data          0x20000200        0x4 c:/ti/ccsv8/tools/compiler/gcc-arm-none-eabi-7-2017-q4-major-win32/bin/../lib/gcc/arm-none-eabi/7.2.1/thumb/v7e-m/fpv4-sp/hard/crtbegin.o
                0x20000200                __dso_handle
 .data          0x20000204        0x0 c:/ti/ccsv8/tools/compiler/gcc-arm-none-eabi-7-2017-q4-major-win32/bin/../lib/gcc/arm-none-eabi/7.2.1/../../../../arm-none-eabi/lib/thumb/v7e-m/fpv4-sp/hard/crt0.o
 .data          0x20000204        0x0 ./Control_Res.o
 .data          0x20000204        0x0 ./Local_Average.o
 .data          0x20000204        0x0 ./bsp.o
 .data          0x20000204        0x0 ./indM_control_and_RCalculation.o
 .data          0x20000204        0x0 ./indM_data_Processing.o
 .data          0x20000204        0x0 ./indM_get_Data.o
 .data          0x20000204        0x0 ./indM_get_Data_Array.o
 .data          0x20000204        0x0 ./indM_normal_Close.o
 .data          0x20000204        0x0 ./indM_port_configuration.o
 .data          0x20000204        0x0 ./indM_res_Closing.o
 .data          0x20000204        0x0 ./indM_res_Init.o
 .data          0x20000204        0x0 ./indM_safe_Close.o
 .data          0x20000204        0x0 ./indM_set_Time_Reference.o
 .data          0x20000204        0x0 ./indM_setting.o
 .data          0x20000204        0x0 ./indM_uART_routine.o
 .data          0x20000204        0x0 ./least_square.o
 .data          0x20000204        0x0 ./main.o
 .data          0x20000204        0x0 ./startup_tm4c_gnu.o
 .data          0x20000204        0x0 ./uartstdio.o
 .data          0x20000204        0x0 ./src/sc_timer_service.o
 .data          0x20000204        0x0 ./src-gen/indM.o
 .data          0x20000204        0x0 c:/ti/ccsv8/tools/compiler/gcc-arm-none-eabi-7-2017-q4-major-win32/bin/../lib/gcc/arm-none-eabi/7.2.1/../../../../arm-none-eabi/lib/thumb/v7e-m/fpv4-sp/hard\libc.a(lib_a-exit.o)
 .data          0x20000204        0x0 c:/ti/ccsv8/tools/compiler/gcc-arm-none-eabi-7-2017-q4-major-win32/bin/../lib/gcc/arm-none-eabi/7.2.1/../../../../arm-none-eabi/lib/thumb/v7e-m/fpv4-sp/hard\libc.a(lib_a-impure.o)
 .data          0x20000204        0x0 c:/ti/ccsv8/tools/compiler/gcc-arm-none-eabi-7-2017-q4-major-win32/bin/../lib/gcc/arm-none-eabi/7.2.1/../../../../arm-none-eabi/lib/thumb/v7e-m/fpv4-sp/hard\libc.a(lib_a-init.o)
 .data          0x20000204        0x0 c:/ti/ccsv8/tools/compiler/gcc-arm-none-eabi-7-2017-q4-major-win32/bin/../lib/gcc/arm-none-eabi/7.2.1/../../../../arm-none-eabi/lib/thumb/v7e-m/fpv4-sp/hard\libc.a(lib_a-memset.o)
 .data          0x20000204        0x0 c:/ti/ccsv8/tools/compiler/gcc-arm-none-eabi-7-2017-q4-major-win32/bin/../lib/gcc/arm-none-eabi/7.2.1/../../../../arm-none-eabi/lib/thumb/v7e-m/fpv4-sp/hard\libc.a(lib_a-__call_atexit.o)
 .data          0x20000204        0x0 c:/ti/ccsv8/tools/compiler/gcc-arm-none-eabi-7-2017-q4-major-win32/bin/../lib/gcc/arm-none-eabi/7.2.1/../../../../arm-none-eabi/lib/thumb/v7e-m/fpv4-sp/hard\libc.a(lib_a-atexit.o)
 .data          0x20000204        0x0 c:/ti/ccsv8/tools/compiler/gcc-arm-none-eabi-7-2017-q4-major-win32/bin/../lib/gcc/arm-none-eabi/7.2.1/../../../../arm-none-eabi/lib/thumb/v7e-m/fpv4-sp/hard\libc.a(lib_a-fini.o)
 .data          0x20000204        0x0 c:/ti/ccsv8/tools/compiler/gcc-arm-none-eabi-7-2017-q4-major-win32/bin/../lib/gcc/arm-none-eabi/7.2.1/../../../../arm-none-eabi/lib/thumb/v7e-m/fpv4-sp/hard\libc.a(lib_a-lock.o)
 .data          0x20000204        0x0 c:/ti/ccsv8/tools/compiler/gcc-arm-none-eabi-7-2017-q4-major-win32/bin/../lib/gcc/arm-none-eabi/7.2.1/../../../../arm-none-eabi/lib/thumb/v7e-m/fpv4-sp/hard\libc.a(lib_a-__atexit.o)
 .data          0x20000204        0x0 c:/ti/ccsv8/tools/compiler/gcc-arm-none-eabi-7-2017-q4-major-win32/bin/../lib/gcc/arm-none-eabi/7.2.1/../../../../arm-none-eabi/lib/thumb/v7e-m/fpv4-sp/hard\libm.a(lib_a-s_floor.o)
 .data          0x20000204        0x0 c:/ti/ccsv8/tools/compiler/gcc-arm-none-eabi-7-2017-q4-major-win32/bin/../lib/gcc/arm-none-eabi/7.2.1/../../../../arm-none-eabi/lib/thumb/v7e-m/fpv4-sp/hard\libm.a(lib_a-w_pow.o)
 .data          0x20000204        0x0 c:/ti/ccsv8/tools/compiler/gcc-arm-none-eabi-7-2017-q4-major-win32/bin/../lib/gcc/arm-none-eabi/7.2.1/../../../../arm-none-eabi/lib/thumb/v7e-m/fpv4-sp/hard\libm.a(lib_a-e_pow.o)
 .data          0x20000204        0x0 c:/ti/ccsv8/tools/compiler/gcc-arm-none-eabi-7-2017-q4-major-win32/bin/../lib/gcc/arm-none-eabi/7.2.1/../../../../arm-none-eabi/lib/thumb/v7e-m/fpv4-sp/hard\libm.a(lib_a-e_sqrt.o)
 .data          0x20000204        0x0 c:/ti/ccsv8/tools/compiler/gcc-arm-none-eabi-7-2017-q4-major-win32/bin/../lib/gcc/arm-none-eabi/7.2.1/../../../../arm-none-eabi/lib/thumb/v7e-m/fpv4-sp/hard\libm.a(lib_a-s_fabs.o)
 .data          0x20000204        0x0 c:/ti/ccsv8/tools/compiler/gcc-arm-none-eabi-7-2017-q4-major-win32/bin/../lib/gcc/arm-none-eabi/7.2.1/../../../../arm-none-eabi/lib/thumb/v7e-m/fpv4-sp/hard\libm.a(lib_a-s_finite.o)
 .data          0x20000204        0x0 c:/ti/ccsv8/tools/compiler/gcc-arm-none-eabi-7-2017-q4-major-win32/bin/../lib/gcc/arm-none-eabi/7.2.1/../../../../arm-none-eabi/lib/thumb/v7e-m/fpv4-sp/hard\libm.a(lib_a-s_lib_ver.o)
 .data          0x20000204        0x0 c:/ti/ccsv8/tools/compiler/gcc-arm-none-eabi-7-2017-q4-major-win32/bin/../lib/gcc/arm-none-eabi/7.2.1/../../../../arm-none-eabi/lib/thumb/v7e-m/fpv4-sp/hard\libm.a(lib_a-s_matherr.o)
 .data          0x20000204        0x0 c:/ti/ccsv8/tools/compiler/gcc-arm-none-eabi-7-2017-q4-major-win32/bin/../lib/gcc/arm-none-eabi/7.2.1/../../../../arm-none-eabi/lib/thumb/v7e-m/fpv4-sp/hard\libm.a(lib_a-s_nan.o)
 .data          0x20000204        0x0 c:/ti/ccsv8/tools/compiler/gcc-arm-none-eabi-7-2017-q4-major-win32/bin/../lib/gcc/arm-none-eabi/7.2.1/../../../../arm-none-eabi/lib/thumb/v7e-m/fpv4-sp/hard\libm.a(lib_a-s_rint.o)
 .data          0x20000204        0x0 c:/ti/ccsv8/tools/compiler/gcc-arm-none-eabi-7-2017-q4-major-win32/bin/../lib/gcc/arm-none-eabi/7.2.1/../../../../arm-none-eabi/lib/thumb/v7e-m/fpv4-sp/hard\libm.a(lib_a-s_scalbn.o)
 .data          0x20000204        0x0 c:/ti/ccsv8/tools/compiler/gcc-arm-none-eabi-7-2017-q4-major-win32/bin/../lib/gcc/arm-none-eabi/7.2.1/../../../../arm-none-eabi/lib/thumb/v7e-m/fpv4-sp/hard\libm.a(lib_a-s_copysign.o)
 .data          0x20000204        0x0 c:/ti/ccsv8/tools/compiler/gcc-arm-none-eabi-7-2017-q4-major-win32/bin/../lib/gcc/arm-none-eabi/7.2.1/thumb/v7e-m/fpv4-sp/hard\libgcc.a(_arm_addsubdf3.o)
 .data          0x20000204        0x0 c:/ti/ccsv8/tools/compiler/gcc-arm-none-eabi-7-2017-q4-major-win32/bin/../lib/gcc/arm-none-eabi/7.2.1/thumb/v7e-m/fpv4-sp/hard\libgcc.a(_arm_muldivdf3.o)
 .data          0x20000204        0x0 c:/ti/ccsv8/tools/compiler/gcc-arm-none-eabi-7-2017-q4-major-win32/bin/../lib/gcc/arm-none-eabi/7.2.1/thumb/v7e-m/fpv4-sp/hard\libgcc.a(_arm_cmpdf2.o)
 .data          0x20000204        0x0 c:/ti/ccsv8/tools/compiler/gcc-arm-none-eabi-7-2017-q4-major-win32/bin/../lib/gcc/arm-none-eabi/7.2.1/thumb/v7e-m/fpv4-sp/hard\libgcc.a(_arm_unorddf2.o)
 .data          0x20000204        0x0 c:/ti/ccsv8/tools/compiler/gcc-arm-none-eabi-7-2017-q4-major-win32/bin/../lib/gcc/arm-none-eabi/7.2.1/thumb/v7e-m/fpv4-sp/hard\libgcc.a(_arm_fixdfsi.o)
 .data          0x20000204        0x0 c:/ti/ccsv8/tools/compiler/gcc-arm-none-eabi-7-2017-q4-major-win32/bin/../lib/gcc/arm-none-eabi/7.2.1/thumb/v7e-m/fpv4-sp/hard\libgcc.a(_arm_fixunsdfsi.o)
 .data          0x20000204        0x0 c:/ti/ccsv8/tools/compiler/gcc-arm-none-eabi-7-2017-q4-major-win32/bin/../lib/gcc/arm-none-eabi/7.2.1/thumb/v7e-m/fpv4-sp/hard\libgcc.a(_arm_truncdfsf2.o)
 .data          0x20000204        0x0 c:/ti/ccsv8/tools/compiler/gcc-arm-none-eabi-7-2017-q4-major-win32/bin/../lib/gcc/arm-none-eabi/7.2.1/../../../../arm-none-eabi/lib/thumb/v7e-m/fpv4-sp/hard\libc.a(lib_a-errno.o)
 .data          0x20000204        0x0 C:/Users/Marco/Desktop/EjemploTivaC2/tiva/TivaWare_C_Series-2.1.4.178/driverlib/gcc\libdriver.a(fpu.o)
 .data          0x20000204        0x0 C:/Users/Marco/Desktop/EjemploTivaC2/tiva/TivaWare_C_Series-2.1.4.178/driverlib/gcc\libdriver.a(gpio.o)
 .data          0x20000204        0x0 C:/Users/Marco/Desktop/EjemploTivaC2/tiva/TivaWare_C_Series-2.1.4.178/driverlib/gcc\libdriver.a(interrupt.o)
 .data          0x20000204        0x0 C:/Users/Marco/Desktop/EjemploTivaC2/tiva/TivaWare_C_Series-2.1.4.178/driverlib/gcc\libdriver.a(mpu.o)
 .data          0x20000204        0x0 C:/Users/Marco/Desktop/EjemploTivaC2/tiva/TivaWare_C_Series-2.1.4.178/driverlib/gcc\libdriver.a(ssi.o)
 .data          0x20000204        0x0 C:/Users/Marco/Desktop/EjemploTivaC2/tiva/TivaWare_C_Series-2.1.4.178/driverlib/gcc\libdriver.a(sysctl.o)
 .data          0x20000204        0x0 C:/Users/Marco/Desktop/EjemploTivaC2/tiva/TivaWare_C_Series-2.1.4.178/driverlib/gcc\libdriver.a(systick.o)
 .data          0x20000204        0x0 C:/Users/Marco/Desktop/EjemploTivaC2/tiva/TivaWare_C_Series-2.1.4.178/driverlib/gcc\libdriver.a(uart.o)
 .data          0x20000204        0x0 C:/Users/Marco/Desktop/EjemploTivaC2/tiva/TivaWare_C_Series-2.1.4.178/driverlib/gcc\libdriver.a(cpu.o)
 .data          0x20000204        0x0 c:/ti/ccsv8/tools/compiler/gcc-arm-none-eabi-7-2017-q4-major-win32/bin/../lib/gcc/arm-none-eabi/7.2.1/../../../../arm-none-eabi/lib/thumb/v7e-m/fpv4-sp/hard\libnosys.a(_exit.o)
 .data          0x20000204        0x0 c:/ti/ccsv8/tools/compiler/gcc-arm-none-eabi-7-2017-q4-major-win32/bin/../lib/gcc/arm-none-eabi/7.2.1/thumb/v7e-m/fpv4-sp/hard/crtend.o
 .data          0x20000204        0x0 c:/ti/ccsv8/tools/compiler/gcc-arm-none-eabi-7-2017-q4-major-win32/bin/../lib/gcc/arm-none-eabi/7.2.1/thumb/v7e-m/fpv4-sp/hard/crtn.o
 *(.data*)
 .data.aux_0    0x20000204        0x4 ./indM_setting.o
                0x20000204                aux_0
 .data.aux_1    0x20000208        0x4 ./indM_setting.o
                0x20000208                aux_1
 .data.Gain_OPA227
                0x2000020c        0x4 ./main.o
                0x2000020c                Gain_OPA227
 .data.I_wished
                0x20000210        0x4 ./main.o
                0x20000210                I_wished
 .data.K_L      0x20000214        0x4 ./main.o
                0x20000214                K_L
 .data.K_LR     0x20000218        0x4 ./main.o
                0x20000218                K_LR
 .data.K_R      0x2000021c        0x4 ./main.o
                0x2000021c                K_R
 .data.K_RR     0x20000220        0x4 ./main.o
                0x20000220                K_RR
 .data.K_RT     0x20000224        0x4 ./main.o
                0x20000224                K_RT
 .data.Rs       0x20000228        0x4 ./main.o
                0x20000228                Rs
 .data.T        0x2000022c        0x4 ./main.o
                0x2000022c                T
 .data.V_MAX_ADC
                0x20000230        0x4 ./main.o
                0x20000230                V_MAX_ADC
 .data.V_MAX_DAC
                0x20000234        0x4 ./main.o
                0x20000234                V_MAX_DAC
 .data.V_TH_FET
                0x20000238        0x4 ./main.o
                0x20000238                V_TH_FET
 .data.V_th_ss  0x2000023c        0x4 ./main.o
                0x2000023c                V_th_ss
 .data.Vref_ss  0x20000240        0x4 ./main.o
                0x20000240                Vref_ss
 .data.pi       0x20000244        0x4 ./main.o
                0x20000244                pi
 .data.piR      0x20000248        0x4 ./main.o
                0x20000248                piR
 .data.step     0x2000024c        0x4 ./main.o
                0x2000024c                step
 .data._impure_ptr
                0x20000250        0x4 c:/ti/ccsv8/tools/compiler/gcc-arm-none-eabi-7-2017-q4-major-win32/bin/../lib/gcc/arm-none-eabi/7.2.1/../../../../arm-none-eabi/lib/thumb/v7e-m/fpv4-sp/hard\libc.a(lib_a-impure.o)
                0x20000250                _impure_ptr
 *fill*         0x20000254        0x4 
 .data.impure_data
                0x20000258      0x428 c:/ti/ccsv8/tools/compiler/gcc-arm-none-eabi-7-2017-q4-major-win32/bin/../lib/gcc/arm-none-eabi/7.2.1/../../../../arm-none-eabi/lib/thumb/v7e-m/fpv4-sp/hard\libc.a(lib_a-impure.o)
 .data.__atexit_recursive_mutex
                0x20000680        0x4 c:/ti/ccsv8/tools/compiler/gcc-arm-none-eabi-7-2017-q4-major-win32/bin/../lib/gcc/arm-none-eabi/7.2.1/../../../../arm-none-eabi/lib/thumb/v7e-m/fpv4-sp/hard\libc.a(lib_a-__call_atexit.o)
                0x20000680                __atexit_recursive_mutex
 .data.__fdlib_version
                0x20000684        0x1 c:/ti/ccsv8/tools/compiler/gcc-arm-none-eabi-7-2017-q4-major-win32/bin/../lib/gcc/arm-none-eabi/7.2.1/../../../../arm-none-eabi/lib/thumb/v7e-m/fpv4-sp/hard\libm.a(lib_a-s_lib_ver.o)
                0x20000684                __fdlib_version
                0x20000688                . = ALIGN (0x4)
 *fill*         0x20000685        0x3 
                0x20000688                __data_end__ = .
                0x20000688                _edata = __data_end__

.igot.plt       0x20000688        0x0 load address 0x00006f4c
 .igot.plt      0x20000688        0x0 c:/ti/ccsv8/tools/compiler/gcc-arm-none-eabi-7-2017-q4-major-win32/bin/../lib/gcc/arm-none-eabi/7.2.1/thumb/v7e-m/fpv4-sp/hard/crtbegin.o

vtable          0x20000800      0x400 load address 0x00007400
 vtable         0x20000800      0x400 C:/Users/Marco/Desktop/EjemploTivaC2/tiva/TivaWare_C_Series-2.1.4.178/driverlib/gcc\libdriver.a(interrupt.o)

.bss            0x20000c00     0x5fec load address 0x00007800
                0x20000c00                __bss_start__ = .
 *(.bss)
 .bss           0x20000c00        0x0 c:/ti/ccsv8/tools/compiler/gcc-arm-none-eabi-7-2017-q4-major-win32/bin/../lib/gcc/arm-none-eabi/7.2.1/thumb/v7e-m/fpv4-sp/hard/crti.o
 .bss           0x20000c00       0x1c c:/ti/ccsv8/tools/compiler/gcc-arm-none-eabi-7-2017-q4-major-win32/bin/../lib/gcc/arm-none-eabi/7.2.1/thumb/v7e-m/fpv4-sp/hard/crtbegin.o
 .bss           0x20000c1c        0x0 c:/ti/ccsv8/tools/compiler/gcc-arm-none-eabi-7-2017-q4-major-win32/bin/../lib/gcc/arm-none-eabi/7.2.1/../../../../arm-none-eabi/lib/thumb/v7e-m/fpv4-sp/hard/crt0.o
 .bss           0x20000c1c        0x0 ./Control_Res.o
 .bss           0x20000c1c        0x0 ./Local_Average.o
 .bss           0x20000c1c        0x0 ./bsp.o
 .bss           0x20000c1c        0x0 ./indM_control_and_RCalculation.o
 .bss           0x20000c1c        0x0 ./indM_data_Processing.o
 .bss           0x20000c1c        0x0 ./indM_get_Data.o
 .bss           0x20000c1c        0x0 ./indM_get_Data_Array.o
 .bss           0x20000c1c        0x0 ./indM_normal_Close.o
 .bss           0x20000c1c        0x0 ./indM_port_configuration.o
 .bss           0x20000c1c        0x0 ./indM_res_Closing.o
 .bss           0x20000c1c        0x0 ./indM_res_Init.o
 .bss           0x20000c1c        0x0 ./indM_safe_Close.o
 .bss           0x20000c1c        0x0 ./indM_set_Time_Reference.o
 .bss           0x20000c1c        0x0 ./indM_setting.o
 .bss           0x20000c1c        0x0 ./indM_uART_routine.o
 .bss           0x20000c1c        0x0 ./least_square.o
 .bss           0x20000c1c        0x0 ./main.o
 .bss           0x20000c1c        0x0 ./startup_tm4c_gnu.o
 .bss           0x20000c1c        0x0 ./uartstdio.o
 .bss           0x20000c1c        0x0 ./src/sc_timer_service.o
 .bss           0x20000c1c        0x0 ./src-gen/indM.o
 .bss           0x20000c1c        0x0 c:/ti/ccsv8/tools/compiler/gcc-arm-none-eabi-7-2017-q4-major-win32/bin/../lib/gcc/arm-none-eabi/7.2.1/../../../../arm-none-eabi/lib/thumb/v7e-m/fpv4-sp/hard\libc.a(lib_a-exit.o)
 .bss           0x20000c1c        0x0 c:/ti/ccsv8/tools/compiler/gcc-arm-none-eabi-7-2017-q4-major-win32/bin/../lib/gcc/arm-none-eabi/7.2.1/../../../../arm-none-eabi/lib/thumb/v7e-m/fpv4-sp/hard\libc.a(lib_a-impure.o)
 .bss           0x20000c1c        0x0 c:/ti/ccsv8/tools/compiler/gcc-arm-none-eabi-7-2017-q4-major-win32/bin/../lib/gcc/arm-none-eabi/7.2.1/../../../../arm-none-eabi/lib/thumb/v7e-m/fpv4-sp/hard\libc.a(lib_a-init.o)
 .bss           0x20000c1c        0x0 c:/ti/ccsv8/tools/compiler/gcc-arm-none-eabi-7-2017-q4-major-win32/bin/../lib/gcc/arm-none-eabi/7.2.1/../../../../arm-none-eabi/lib/thumb/v7e-m/fpv4-sp/hard\libc.a(lib_a-memset.o)
 .bss           0x20000c1c        0x0 c:/ti/ccsv8/tools/compiler/gcc-arm-none-eabi-7-2017-q4-major-win32/bin/../lib/gcc/arm-none-eabi/7.2.1/../../../../arm-none-eabi/lib/thumb/v7e-m/fpv4-sp/hard\libc.a(lib_a-__call_atexit.o)
 .bss           0x20000c1c        0x0 c:/ti/ccsv8/tools/compiler/gcc-arm-none-eabi-7-2017-q4-major-win32/bin/../lib/gcc/arm-none-eabi/7.2.1/../../../../arm-none-eabi/lib/thumb/v7e-m/fpv4-sp/hard\libc.a(lib_a-atexit.o)
 .bss           0x20000c1c        0x0 c:/ti/ccsv8/tools/compiler/gcc-arm-none-eabi-7-2017-q4-major-win32/bin/../lib/gcc/arm-none-eabi/7.2.1/../../../../arm-none-eabi/lib/thumb/v7e-m/fpv4-sp/hard\libc.a(lib_a-fini.o)
 .bss           0x20000c1c        0x0 c:/ti/ccsv8/tools/compiler/gcc-arm-none-eabi-7-2017-q4-major-win32/bin/../lib/gcc/arm-none-eabi/7.2.1/../../../../arm-none-eabi/lib/thumb/v7e-m/fpv4-sp/hard\libc.a(lib_a-lock.o)
 .bss           0x20000c1c        0x0 c:/ti/ccsv8/tools/compiler/gcc-arm-none-eabi-7-2017-q4-major-win32/bin/../lib/gcc/arm-none-eabi/7.2.1/../../../../arm-none-eabi/lib/thumb/v7e-m/fpv4-sp/hard\libc.a(lib_a-__atexit.o)
 .bss           0x20000c1c        0x0 c:/ti/ccsv8/tools/compiler/gcc-arm-none-eabi-7-2017-q4-major-win32/bin/../lib/gcc/arm-none-eabi/7.2.1/../../../../arm-none-eabi/lib/thumb/v7e-m/fpv4-sp/hard\libm.a(lib_a-s_floor.o)
 .bss           0x20000c1c        0x0 c:/ti/ccsv8/tools/compiler/gcc-arm-none-eabi-7-2017-q4-major-win32/bin/../lib/gcc/arm-none-eabi/7.2.1/../../../../arm-none-eabi/lib/thumb/v7e-m/fpv4-sp/hard\libm.a(lib_a-w_pow.o)
 .bss           0x20000c1c        0x0 c:/ti/ccsv8/tools/compiler/gcc-arm-none-eabi-7-2017-q4-major-win32/bin/../lib/gcc/arm-none-eabi/7.2.1/../../../../arm-none-eabi/lib/thumb/v7e-m/fpv4-sp/hard\libm.a(lib_a-e_pow.o)
 .bss           0x20000c1c        0x0 c:/ti/ccsv8/tools/compiler/gcc-arm-none-eabi-7-2017-q4-major-win32/bin/../lib/gcc/arm-none-eabi/7.2.1/../../../../arm-none-eabi/lib/thumb/v7e-m/fpv4-sp/hard\libm.a(lib_a-e_sqrt.o)
 .bss           0x20000c1c        0x0 c:/ti/ccsv8/tools/compiler/gcc-arm-none-eabi-7-2017-q4-major-win32/bin/../lib/gcc/arm-none-eabi/7.2.1/../../../../arm-none-eabi/lib/thumb/v7e-m/fpv4-sp/hard\libm.a(lib_a-s_fabs.o)
 .bss           0x20000c1c        0x0 c:/ti/ccsv8/tools/compiler/gcc-arm-none-eabi-7-2017-q4-major-win32/bin/../lib/gcc/arm-none-eabi/7.2.1/../../../../arm-none-eabi/lib/thumb/v7e-m/fpv4-sp/hard\libm.a(lib_a-s_finite.o)
 .bss           0x20000c1c        0x0 c:/ti/ccsv8/tools/compiler/gcc-arm-none-eabi-7-2017-q4-major-win32/bin/../lib/gcc/arm-none-eabi/7.2.1/../../../../arm-none-eabi/lib/thumb/v7e-m/fpv4-sp/hard\libm.a(lib_a-s_lib_ver.o)
 .bss           0x20000c1c        0x0 c:/ti/ccsv8/tools/compiler/gcc-arm-none-eabi-7-2017-q4-major-win32/bin/../lib/gcc/arm-none-eabi/7.2.1/../../../../arm-none-eabi/lib/thumb/v7e-m/fpv4-sp/hard\libm.a(lib_a-s_matherr.o)
 .bss           0x20000c1c        0x0 c:/ti/ccsv8/tools/compiler/gcc-arm-none-eabi-7-2017-q4-major-win32/bin/../lib/gcc/arm-none-eabi/7.2.1/../../../../arm-none-eabi/lib/thumb/v7e-m/fpv4-sp/hard\libm.a(lib_a-s_nan.o)
 .bss           0x20000c1c        0x0 c:/ti/ccsv8/tools/compiler/gcc-arm-none-eabi-7-2017-q4-major-win32/bin/../lib/gcc/arm-none-eabi/7.2.1/../../../../arm-none-eabi/lib/thumb/v7e-m/fpv4-sp/hard\libm.a(lib_a-s_rint.o)
 .bss           0x20000c1c        0x0 c:/ti/ccsv8/tools/compiler/gcc-arm-none-eabi-7-2017-q4-major-win32/bin/../lib/gcc/arm-none-eabi/7.2.1/../../../../arm-none-eabi/lib/thumb/v7e-m/fpv4-sp/hard\libm.a(lib_a-s_scalbn.o)
 .bss           0x20000c1c        0x0 c:/ti/ccsv8/tools/compiler/gcc-arm-none-eabi-7-2017-q4-major-win32/bin/../lib/gcc/arm-none-eabi/7.2.1/../../../../arm-none-eabi/lib/thumb/v7e-m/fpv4-sp/hard\libm.a(lib_a-s_copysign.o)
 .bss           0x20000c1c        0x0 c:/ti/ccsv8/tools/compiler/gcc-arm-none-eabi-7-2017-q4-major-win32/bin/../lib/gcc/arm-none-eabi/7.2.1/thumb/v7e-m/fpv4-sp/hard\libgcc.a(_arm_addsubdf3.o)
 .bss           0x20000c1c        0x0 c:/ti/ccsv8/tools/compiler/gcc-arm-none-eabi-7-2017-q4-major-win32/bin/../lib/gcc/arm-none-eabi/7.2.1/thumb/v7e-m/fpv4-sp/hard\libgcc.a(_arm_muldivdf3.o)
 .bss           0x20000c1c        0x0 c:/ti/ccsv8/tools/compiler/gcc-arm-none-eabi-7-2017-q4-major-win32/bin/../lib/gcc/arm-none-eabi/7.2.1/thumb/v7e-m/fpv4-sp/hard\libgcc.a(_arm_cmpdf2.o)
 .bss           0x20000c1c        0x0 c:/ti/ccsv8/tools/compiler/gcc-arm-none-eabi-7-2017-q4-major-win32/bin/../lib/gcc/arm-none-eabi/7.2.1/thumb/v7e-m/fpv4-sp/hard\libgcc.a(_arm_unorddf2.o)
 .bss           0x20000c1c        0x0 c:/ti/ccsv8/tools/compiler/gcc-arm-none-eabi-7-2017-q4-major-win32/bin/../lib/gcc/arm-none-eabi/7.2.1/thumb/v7e-m/fpv4-sp/hard\libgcc.a(_arm_fixdfsi.o)
 .bss           0x20000c1c        0x0 c:/ti/ccsv8/tools/compiler/gcc-arm-none-eabi-7-2017-q4-major-win32/bin/../lib/gcc/arm-none-eabi/7.2.1/thumb/v7e-m/fpv4-sp/hard\libgcc.a(_arm_fixunsdfsi.o)
 .bss           0x20000c1c        0x0 c:/ti/ccsv8/tools/compiler/gcc-arm-none-eabi-7-2017-q4-major-win32/bin/../lib/gcc/arm-none-eabi/7.2.1/thumb/v7e-m/fpv4-sp/hard\libgcc.a(_arm_truncdfsf2.o)
 .bss           0x20000c1c        0x0 c:/ti/ccsv8/tools/compiler/gcc-arm-none-eabi-7-2017-q4-major-win32/bin/../lib/gcc/arm-none-eabi/7.2.1/../../../../arm-none-eabi/lib/thumb/v7e-m/fpv4-sp/hard\libc.a(lib_a-errno.o)
 .bss           0x20000c1c        0x0 C:/Users/Marco/Desktop/EjemploTivaC2/tiva/TivaWare_C_Series-2.1.4.178/driverlib/gcc\libdriver.a(fpu.o)
 .bss           0x20000c1c        0x0 C:/Users/Marco/Desktop/EjemploTivaC2/tiva/TivaWare_C_Series-2.1.4.178/driverlib/gcc\libdriver.a(gpio.o)
 .bss           0x20000c1c        0x0 C:/Users/Marco/Desktop/EjemploTivaC2/tiva/TivaWare_C_Series-2.1.4.178/driverlib/gcc\libdriver.a(interrupt.o)
 .bss           0x20000c1c        0x0 C:/Users/Marco/Desktop/EjemploTivaC2/tiva/TivaWare_C_Series-2.1.4.178/driverlib/gcc\libdriver.a(mpu.o)
 .bss           0x20000c1c        0x0 C:/Users/Marco/Desktop/EjemploTivaC2/tiva/TivaWare_C_Series-2.1.4.178/driverlib/gcc\libdriver.a(ssi.o)
 .bss           0x20000c1c        0x0 C:/Users/Marco/Desktop/EjemploTivaC2/tiva/TivaWare_C_Series-2.1.4.178/driverlib/gcc\libdriver.a(sysctl.o)
 .bss           0x20000c1c        0x0 C:/Users/Marco/Desktop/EjemploTivaC2/tiva/TivaWare_C_Series-2.1.4.178/driverlib/gcc\libdriver.a(systick.o)
 .bss           0x20000c1c        0x0 C:/Users/Marco/Desktop/EjemploTivaC2/tiva/TivaWare_C_Series-2.1.4.178/driverlib/gcc\libdriver.a(uart.o)
 .bss           0x20000c1c        0x0 C:/Users/Marco/Desktop/EjemploTivaC2/tiva/TivaWare_C_Series-2.1.4.178/driverlib/gcc\libdriver.a(cpu.o)
 .bss           0x20000c1c        0x0 c:/ti/ccsv8/tools/compiler/gcc-arm-none-eabi-7-2017-q4-major-win32/bin/../lib/gcc/arm-none-eabi/7.2.1/../../../../arm-none-eabi/lib/thumb/v7e-m/fpv4-sp/hard\libnosys.a(_exit.o)
 .bss           0x20000c1c        0x0 c:/ti/ccsv8/tools/compiler/gcc-arm-none-eabi-7-2017-q4-major-win32/bin/../lib/gcc/arm-none-eabi/7.2.1/thumb/v7e-m/fpv4-sp/hard/crtend.o
 .bss           0x20000c1c        0x0 c:/ti/ccsv8/tools/compiler/gcc-arm-none-eabi-7-2017-q4-major-win32/bin/../lib/gcc/arm-none-eabi/7.2.1/thumb/v7e-m/fpv4-sp/hard/crtn.o
 *(.bss*)
 .bss.sw_highcount.10303
                0x20000c1c        0x4 ./bsp.o
 .bss.sw_lowcount.10302
                0x20000c20        0x4 ./bsp.o
 .bss.sw_state.10301
                0x20000c24        0x4 ./bsp.o
 .bss.Resistance_aux
                0x20000c28        0x4 ./indM_control_and_RCalculation.o
                0x20000c28                Resistance_aux
 .bss.count_prom
                0x20000c2c        0x4 ./indM_control_and_RCalculation.o
                0x20000c2c                count_prom
 .bss.ss        0x20000c30        0x1 ./indM_control_and_RCalculation.o
                0x20000c30                ss
 *fill*         0x20000c31        0x3 
 .bss.V_i       0x20000c34      0x258 ./indM_data_Processing.o
                0x20000c34                V_i
 .bss.array_index
                0x20000e8c        0x4 ./indM_data_Processing.o
                0x20000e8c                array_index
 .bss.slopes    0x20000e90      0x258 ./indM_data_Processing.o
                0x20000e90                slopes
 .bss.sp_aux    0x200010e8        0x4 ./indM_data_Processing.o
                0x200010e8                sp_aux
 .bss.aux_f     0x200010ec      0xfa0 ./indM_setting.o
                0x200010ec                aux_f
 .bss.l_WrongSetting
                0x2000208c        0x1 ./indM_setting.o
                0x2000208c                l_WrongSetting
 .bss.l_f_ireach
                0x2000208d        0x1 ./indM_setting.o
                0x2000208d                l_f_ireach
 .bss.l_gain_set
                0x2000208e        0x1 ./indM_setting.o
                0x2000208e                l_gain_set
 *fill*         0x2000208f        0x1 
 .bss.puntero   0x20002090        0x4 ./indM_setting.o
                0x20002090                puntero
 .bss.command   0x20002094        0x1 ./indM_uART_routine.o
                0x20002094                command
 *fill*         0x20002095        0x3 
 .bss.send_index
                0x20002098        0x4 ./indM_uART_routine.o
                0x20002098                send_index
 .bss.NRO_SAMPLES
                0x2000209c        0x4 ./main.o
                0x2000209c                NRO_SAMPLES
 .bss.Resistance
                0x200020a0        0x4 ./main.o
                0x200020a0                Resistance
 .bss.Vref      0x200020a4        0x4 ./main.o
                0x200020a4                Vref
 .bss.a_index   0x200020a8        0x4 ./main.o
                0x200020a8                a_index
 .bss.bufsend   0x200020ac       0x96 ./main.o
                0x200020ac                bufsend
 *fill*         0x20002142        0x2 
 .bss.bufsend_i
                0x20002144       0x96 ./main.o
                0x20002144                bufsend_i
 *fill*         0x200021da        0x2 
 .bss.n_f       0x200021dc        0x4 ./main.o
                0x200021dc                n_f
 .bss.n_i       0x200021e0        0x4 ./main.o
                0x200021e0                n_i
 .bss.s_index   0x200021e4        0x4 ./main.o
                0x200021e4                s_index
 .bss.timer_service
                0x200021e8        0xc ./main.o
 .bss.timers    0x200021f4       0x60 ./main.o
 .bss.v_gate    0x20002254       0x14 ./main.o
                0x20002254                v_gate
 .bss.bLastWasCR.5755
                0x20002268        0x1 ./uartstdio.o
 *fill*         0x20002269        0x3 
 .bss.g_ui32Base
                0x2000226c        0x4 ./uartstdio.o
 *(COMMON)
 COMMON         0x20002270       0x20 ./indM_control_and_RCalculation.o
                0x20002270                V_R
                0x20002274                runs_R
                0x20002278                V_L1
                0x2000227c                error
                0x20002284                v_gate_k
                0x20002288                u
 COMMON         0x20002290     0x27d8 ./indM_data_Processing.o
                0x20002290                L_i_Ind
                0x200024e8                I_R
                0x20003550                current
                0x2000367c                V_L
                0x200046e4                L_i_Current
                0x2000493c                inductance
 COMMON         0x20004a68        0x4 ./indM_get_Data_Array.o
                0x20004a68                counter
 COMMON         0x20004a6c       0x24 ./least_square.o
                0x20004a6c                t
                0x20004a70                A22
                0x20004a74                det
                0x20004a78                A12
                0x20004a7c                B2
                0x20004a80                result
                0x20004a84                I
                0x20004a88                A11
                0x20004a8c                B1
 COMMON         0x20004a90     0x2138 ./main.o
                0x20004a90                samp_R
                0x20005af8                samp_L
                0x20006b60                data
                0x20006b68                Gain_L
                0x20006b6c                offset
                0x20006b74                ls
                0x20006bc4                Gain_R
 COMMON         0x20006bc8       0x21 c:/ti/ccsv8/tools/compiler/gcc-arm-none-eabi-7-2017-q4-major-win32/bin/../lib/gcc/arm-none-eabi/7.2.1/../../../../arm-none-eabi/lib/thumb/v7e-m/fpv4-sp/hard\libc.a(lib_a-lock.o)
                0x20006bc8                __lock___atexit_recursive_mutex
                0x20006bcc                __lock___arc4random_mutex
                0x20006bd0                __lock___env_recursive_mutex
                0x20006bd4                __lock___sinit_recursive_mutex
                0x20006bd8                __lock___malloc_recursive_mutex
                0x20006bdc                __lock___at_quick_exit_mutex
                0x20006be0                __lock___dd_hash_mutex
                0x20006be4                __lock___tz_mutex
                0x20006be8                __lock___sfp_recursive_mutex
                0x20006bec                . = ALIGN (0x4)
 *fill*         0x20006be9        0x3 
                0x20006bec                _ebss = .
                0x20006bec                __bss_end__ = .
                [!provide]                PROVIDE (end, _ebss)
                [!provide]                PROVIDE (_end, _ebss)
                [!provide]                PROVIDE (__end__, _ebss)

.heap           0x20006bec        0x0
                0x20006bec                __heap_start__ = .
                0x20006bec                . = (. + HEAP_SIZE)
                0x20006bec                . = ALIGN (0x4)
                0x20006bec                __heap_end__ = .

/DISCARD/
 libc.a(*)
 libm.a(*)
 libgcc.a(*)
START GROUP
LOAD c:/ti/ccsv8/tools/compiler/gcc-arm-none-eabi-7-2017-q4-major-win32/bin/../lib/gcc/arm-none-eabi/7.2.1/../../../../arm-none-eabi/lib/thumb/v7e-m/fpv4-sp/hard\libc.a
LOAD C:/Users/Marco/Desktop/EjemploTivaC2/tiva/TivaWare_C_Series-2.1.4.178/driverlib/gcc\libdriver.a
END GROUP
START GROUP
LOAD c:/ti/ccsv8/tools/compiler/gcc-arm-none-eabi-7-2017-q4-major-win32/bin/../lib/gcc/arm-none-eabi/7.2.1/thumb/v7e-m/fpv4-sp/hard\libgcc.a
LOAD c:/ti/ccsv8/tools/compiler/gcc-arm-none-eabi-7-2017-q4-major-win32/bin/../lib/gcc/arm-none-eabi/7.2.1/../../../../arm-none-eabi/lib/thumb/v7e-m/fpv4-sp/hard\libg.a
LOAD c:/ti/ccsv8/tools/compiler/gcc-arm-none-eabi-7-2017-q4-major-win32/bin/../lib/gcc/arm-none-eabi/7.2.1/../../../../arm-none-eabi/lib/thumb/v7e-m/fpv4-sp/hard\libc.a
END GROUP
START GROUP
LOAD c:/ti/ccsv8/tools/compiler/gcc-arm-none-eabi-7-2017-q4-major-win32/bin/../lib/gcc/arm-none-eabi/7.2.1/thumb/v7e-m/fpv4-sp/hard\libgcc.a
LOAD c:/ti/ccsv8/tools/compiler/gcc-arm-none-eabi-7-2017-q4-major-win32/bin/../lib/gcc/arm-none-eabi/7.2.1/../../../../arm-none-eabi/lib/thumb/v7e-m/fpv4-sp/hard\libc.a
LOAD c:/ti/ccsv8/tools/compiler/gcc-arm-none-eabi-7-2017-q4-major-win32/bin/../lib/gcc/arm-none-eabi/7.2.1/../../../../arm-none-eabi/lib/thumb/v7e-m/fpv4-sp/hard\libnosys.a
END GROUP
LOAD c:/ti/ccsv8/tools/compiler/gcc-arm-none-eabi-7-2017-q4-major-win32/bin/../lib/gcc/arm-none-eabi/7.2.1/thumb/v7e-m/fpv4-sp/hard/crtend.o
LOAD c:/ti/ccsv8/tools/compiler/gcc-arm-none-eabi-7-2017-q4-major-win32/bin/../lib/gcc/arm-none-eabi/7.2.1/thumb/v7e-m/fpv4-sp/hard/crtn.o
OUTPUT(prueba.out elf32-littlearm)

.ARM.attributes
                0x00000000       0x30
 .ARM.attributes
                0x00000000       0x22 c:/ti/ccsv8/tools/compiler/gcc-arm-none-eabi-7-2017-q4-major-win32/bin/../lib/gcc/arm-none-eabi/7.2.1/thumb/v7e-m/fpv4-sp/hard/crti.o
 .ARM.attributes
                0x00000022       0x34 c:/ti/ccsv8/tools/compiler/gcc-arm-none-eabi-7-2017-q4-major-win32/bin/../lib/gcc/arm-none-eabi/7.2.1/thumb/v7e-m/fpv4-sp/hard/crtbegin.o
 .ARM.attributes
                0x00000056       0x20 c:/ti/ccsv8/tools/compiler/gcc-arm-none-eabi-7-2017-q4-major-win32/bin/../lib/gcc/arm-none-eabi/7.2.1/../../../../arm-none-eabi/lib/thumb/v7e-m/fpv4-sp/hard/crt0.o
 .ARM.attributes
                0x00000076       0x39 ./Control_Res.o
 .ARM.attributes
                0x000000af       0x39 ./Local_Average.o
 .ARM.attributes
                0x000000e8       0x39 ./bsp.o
 .ARM.attributes
                0x00000121       0x39 ./indM_control_and_RCalculation.o
 .ARM.attributes
                0x0000015a       0x39 ./indM_data_Processing.o
 .ARM.attributes
                0x00000193       0x39 ./indM_get_Data.o
 .ARM.attributes
                0x000001cc       0x39 ./indM_get_Data_Array.o
 .ARM.attributes
                0x00000205       0x39 ./indM_normal_Close.o
 .ARM.attributes
                0x0000023e       0x39 ./indM_port_configuration.o
 .ARM.attributes
                0x00000277       0x39 ./indM_res_Closing.o
 .ARM.attributes
                0x000002b0       0x39 ./indM_res_Init.o
 .ARM.attributes
                0x000002e9       0x39 ./indM_safe_Close.o
 .ARM.attributes
                0x00000322       0x39 ./indM_set_Time_Reference.o
 .ARM.attributes
                0x0000035b       0x39 ./indM_setting.o
 .ARM.attributes
                0x00000394       0x39 ./indM_uART_routine.o
 .ARM.attributes
                0x000003cd       0x39 ./least_square.o
 .ARM.attributes
                0x00000406       0x39 ./main.o
 .ARM.attributes
                0x0000043f       0x39 ./startup_tm4c_gnu.o
 .ARM.attributes
                0x00000478       0x39 ./uartstdio.o
 .ARM.attributes
                0x000004b1       0x39 ./src/sc_timer_service.o
 .ARM.attributes
                0x000004ea       0x39 ./src-gen/indM.o
 .ARM.attributes
                0x00000523       0x34 c:/ti/ccsv8/tools/compiler/gcc-arm-none-eabi-7-2017-q4-major-win32/bin/../lib/gcc/arm-none-eabi/7.2.1/../../../../arm-none-eabi/lib/thumb/v7e-m/fpv4-sp/hard\libc.a(lib_a-errno.o)
 .ARM.attributes
                0x00000557       0x3b C:/Users/Marco/Desktop/EjemploTivaC2/tiva/TivaWare_C_Series-2.1.4.178/driverlib/gcc\libdriver.a(fpu.o)
 .ARM.attributes
                0x00000592       0x3b C:/Users/Marco/Desktop/EjemploTivaC2/tiva/TivaWare_C_Series-2.1.4.178/driverlib/gcc\libdriver.a(gpio.o)
 .ARM.attributes
                0x000005cd       0x3b C:/Users/Marco/Desktop/EjemploTivaC2/tiva/TivaWare_C_Series-2.1.4.178/driverlib/gcc\libdriver.a(interrupt.o)
 .ARM.attributes
                0x00000608       0x3b C:/Users/Marco/Desktop/EjemploTivaC2/tiva/TivaWare_C_Series-2.1.4.178/driverlib/gcc\libdriver.a(mpu.o)
 .ARM.attributes
                0x00000643       0x3b C:/Users/Marco/Desktop/EjemploTivaC2/tiva/TivaWare_C_Series-2.1.4.178/driverlib/gcc\libdriver.a(ssi.o)
 .ARM.attributes
                0x0000067e       0x3b C:/Users/Marco/Desktop/EjemploTivaC2/tiva/TivaWare_C_Series-2.1.4.178/driverlib/gcc\libdriver.a(sysctl.o)
 .ARM.attributes
                0x000006b9       0x3b C:/Users/Marco/Desktop/EjemploTivaC2/tiva/TivaWare_C_Series-2.1.4.178/driverlib/gcc\libdriver.a(systick.o)
 .ARM.attributes
                0x000006f4       0x3b C:/Users/Marco/Desktop/EjemploTivaC2/tiva/TivaWare_C_Series-2.1.4.178/driverlib/gcc\libdriver.a(uart.o)
 .ARM.attributes
                0x0000072f       0x3b C:/Users/Marco/Desktop/EjemploTivaC2/tiva/TivaWare_C_Series-2.1.4.178/driverlib/gcc\libdriver.a(cpu.o)
 .ARM.attributes
                0x0000076a       0x34 c:/ti/ccsv8/tools/compiler/gcc-arm-none-eabi-7-2017-q4-major-win32/bin/../lib/gcc/arm-none-eabi/7.2.1/../../../../arm-none-eabi/lib/thumb/v7e-m/fpv4-sp/hard\libnosys.a(_exit.o)
 .ARM.attributes
                0x0000079e       0x34 c:/ti/ccsv8/tools/compiler/gcc-arm-none-eabi-7-2017-q4-major-win32/bin/../lib/gcc/arm-none-eabi/7.2.1/thumb/v7e-m/fpv4-sp/hard/crtend.o
 .ARM.attributes
                0x000007d2       0x22 c:/ti/ccsv8/tools/compiler/gcc-arm-none-eabi-7-2017-q4-major-win32/bin/../lib/gcc/arm-none-eabi/7.2.1/thumb/v7e-m/fpv4-sp/hard/crtn.o

.comment        0x00000000       0xee
 .comment       0x00000000       0x7e ./Control_Res.o
                                 0x7f (size before relaxing)
 .comment       0x0000007e       0x7f ./Local_Average.o
 .comment       0x0000007e       0x7f ./bsp.o
 .comment       0x0000007e       0x7f ./indM_control_and_RCalculation.o
 .comment       0x0000007e       0x7f ./indM_data_Processing.o
 .comment       0x0000007e       0x7f ./indM_get_Data.o
 .comment       0x0000007e       0x7f ./indM_get_Data_Array.o
 .comment       0x0000007e       0x7f ./indM_normal_Close.o
 .comment       0x0000007e       0x7f ./indM_port_configuration.o
 .comment       0x0000007e       0x7f ./indM_res_Closing.o
 .comment       0x0000007e       0x7f ./indM_res_Init.o
 .comment       0x0000007e       0x7f ./indM_safe_Close.o
 .comment       0x0000007e       0x7f ./indM_set_Time_Reference.o
 .comment       0x0000007e       0x7f ./indM_setting.o
 .comment       0x0000007e       0x7f ./indM_uART_routine.o
 .comment       0x0000007e       0x7f ./least_square.o
 .comment       0x0000007e       0x7f ./main.o
 .comment       0x0000007e       0x7f ./startup_tm4c_gnu.o
 .comment       0x0000007e       0x7f ./uartstdio.o
 .comment       0x0000007e       0x7f ./src/sc_timer_service.o
 .comment       0x0000007e       0x7f ./src-gen/indM.o
 .comment       0x0000007e       0x70 C:/Users/Marco/Desktop/EjemploTivaC2/tiva/TivaWare_C_Series-2.1.4.178/driverlib/gcc\libdriver.a(fpu.o)
                                 0x71 (size before relaxing)
 .comment       0x000000ee       0x71 C:/Users/Marco/Desktop/EjemploTivaC2/tiva/TivaWare_C_Series-2.1.4.178/driverlib/gcc\libdriver.a(gpio.o)
 .comment       0x000000ee       0x71 C:/Users/Marco/Desktop/EjemploTivaC2/tiva/TivaWare_C_Series-2.1.4.178/driverlib/gcc\libdriver.a(interrupt.o)
 .comment       0x000000ee       0x71 C:/Users/Marco/Desktop/EjemploTivaC2/tiva/TivaWare_C_Series-2.1.4.178/driverlib/gcc\libdriver.a(mpu.o)
 .comment       0x000000ee       0x71 C:/Users/Marco/Desktop/EjemploTivaC2/tiva/TivaWare_C_Series-2.1.4.178/driverlib/gcc\libdriver.a(ssi.o)
 .comment       0x000000ee       0x71 C:/Users/Marco/Desktop/EjemploTivaC2/tiva/TivaWare_C_Series-2.1.4.178/driverlib/gcc\libdriver.a(sysctl.o)
 .comment       0x000000ee       0x71 C:/Users/Marco/Desktop/EjemploTivaC2/tiva/TivaWare_C_Series-2.1.4.178/driverlib/gcc\libdriver.a(systick.o)
 .comment       0x000000ee       0x71 C:/Users/Marco/Desktop/EjemploTivaC2/tiva/TivaWare_C_Series-2.1.4.178/driverlib/gcc\libdriver.a(uart.o)
 .comment       0x000000ee       0x71 C:/Users/Marco/Desktop/EjemploTivaC2/tiva/TivaWare_C_Series-2.1.4.178/driverlib/gcc\libdriver.a(cpu.o)

.debug_info     0x00000000    0x1201b
 .debug_info    0x00000000      0x9a5 ./Control_Res.o
 .debug_info    0x000009a5      0x9b8 ./Local_Average.o
 .debug_info    0x0000135d      0xc4b ./bsp.o
 .debug_info    0x00001fa8      0xf09 ./indM_control_and_RCalculation.o
 .debug_info    0x00002eb1      0xfa5 ./indM_data_Processing.o
 .debug_info    0x00003e56      0xcfc ./indM_get_Data.o
 .debug_info    0x00004b52      0xd4e ./indM_get_Data_Array.o
 .debug_info    0x000058a0      0xd5b ./indM_normal_Close.o
 .debug_info    0x000065fb     0x1a2a ./indM_port_configuration.o
 .debug_info    0x00008025      0xdc5 ./indM_res_Closing.o
 .debug_info    0x00008dea      0xe61 ./indM_res_Init.o
 .debug_info    0x00009c4b      0xd3a ./indM_safe_Close.o
 .debug_info    0x0000a985      0xd15 ./indM_set_Time_Reference.o
 .debug_info    0x0000b69a      0xe09 ./indM_setting.o
 .debug_info    0x0000c4a3      0xd61 ./indM_uART_routine.o
 .debug_info    0x0000d204      0xa2d ./least_square.o
 .debug_info    0x0000dc31     0x11cd ./main.o
 .debug_info    0x0000edfe      0x1ab ./startup_tm4c_gnu.o
 .debug_info    0x0000efa9      0x390 ./uartstdio.o
 .debug_info    0x0000f339      0xb5c ./src/sc_timer_service.o
 .debug_info    0x0000fe95     0x2186 ./src-gen/indM.o

.debug_abbrev   0x00000000     0x29c5
 .debug_abbrev  0x00000000      0x1df ./Control_Res.o
 .debug_abbrev  0x000001df      0x20b ./Local_Average.o
 .debug_abbrev  0x000003ea      0x250 ./bsp.o
 .debug_abbrev  0x0000063a      0x221 ./indM_control_and_RCalculation.o
 .debug_abbrev  0x0000085b      0x265 ./indM_data_Processing.o
 .debug_abbrev  0x00000ac0      0x1ff ./indM_get_Data.o
 .debug_abbrev  0x00000cbf      0x228 ./indM_get_Data_Array.o
 .debug_abbrev  0x00000ee7      0x210 ./indM_normal_Close.o
 .debug_abbrev  0x000010f7      0x22a ./indM_port_configuration.o
 .debug_abbrev  0x00001321      0x217 ./indM_res_Closing.o
 .debug_abbrev  0x00001538      0x22a ./indM_res_Init.o
 .debug_abbrev  0x00001762      0x201 ./indM_safe_Close.o
 .debug_abbrev  0x00001963      0x1fd ./indM_set_Time_Reference.o
 .debug_abbrev  0x00001b60      0x219 ./indM_setting.o
 .debug_abbrev  0x00001d79      0x21f ./indM_uART_routine.o
 .debug_abbrev  0x00001f98      0x219 ./least_square.o
 .debug_abbrev  0x000021b1      0x266 ./main.o
 .debug_abbrev  0x00002417       0xde ./startup_tm4c_gnu.o
 .debug_abbrev  0x000024f5      0x142 ./uartstdio.o
 .debug_abbrev  0x00002637      0x1f6 ./src/sc_timer_service.o
 .debug_abbrev  0x0000282d      0x198 ./src-gen/indM.o

.debug_aranges  0x00000000      0x838
 .debug_aranges
                0x00000000       0x20 ./Control_Res.o
 .debug_aranges
                0x00000020       0x20 ./Local_Average.o
 .debug_aranges
                0x00000040       0x30 ./bsp.o
 .debug_aranges
                0x00000070       0x20 ./indM_control_and_RCalculation.o
 .debug_aranges
                0x00000090       0x20 ./indM_data_Processing.o
 .debug_aranges
                0x000000b0       0x20 ./indM_get_Data.o
 .debug_aranges
                0x000000d0       0x20 ./indM_get_Data_Array.o
 .debug_aranges
                0x000000f0       0x20 ./indM_normal_Close.o
 .debug_aranges
                0x00000110       0x20 ./indM_port_configuration.o
 .debug_aranges
                0x00000130       0x20 ./indM_res_Closing.o
 .debug_aranges
                0x00000150       0x20 ./indM_res_Init.o
 .debug_aranges
                0x00000170       0x20 ./indM_safe_Close.o
 .debug_aranges
                0x00000190       0x20 ./indM_set_Time_Reference.o
 .debug_aranges
                0x000001b0       0x20 ./indM_setting.o
 .debug_aranges
                0x000001d0       0x20 ./indM_uART_routine.o
 .debug_aranges
                0x000001f0       0x20 ./least_square.o
 .debug_aranges
                0x00000210       0x50 ./main.o
 .debug_aranges
                0x00000260       0x50 ./startup_tm4c_gnu.o
 .debug_aranges
                0x000002b0       0x48 ./uartstdio.o
 .debug_aranges
                0x000002f8       0x40 ./src/sc_timer_service.o
 .debug_aranges
                0x00000338      0x500 ./src-gen/indM.o

.debug_ranges   0x00000000      0x760
 .debug_ranges  0x00000000       0x10 ./Control_Res.o
 .debug_ranges  0x00000010       0x28 ./Local_Average.o
 .debug_ranges  0x00000038       0x20 ./bsp.o
 .debug_ranges  0x00000058       0x10 ./indM_control_and_RCalculation.o
 .debug_ranges  0x00000068       0x28 ./indM_data_Processing.o
 .debug_ranges  0x00000090       0x10 ./indM_get_Data.o
 .debug_ranges  0x000000a0       0x10 ./indM_get_Data_Array.o
 .debug_ranges  0x000000b0       0x10 ./indM_normal_Close.o
 .debug_ranges  0x000000c0       0x10 ./indM_port_configuration.o
 .debug_ranges  0x000000d0       0x28 ./indM_res_Closing.o
 .debug_ranges  0x000000f8       0x10 ./indM_res_Init.o
 .debug_ranges  0x00000108       0x10 ./indM_safe_Close.o
 .debug_ranges  0x00000118       0x10 ./indM_set_Time_Reference.o
 .debug_ranges  0x00000128       0x10 ./indM_setting.o
 .debug_ranges  0x00000138       0x10 ./indM_uART_routine.o
 .debug_ranges  0x00000148       0x10 ./least_square.o
 .debug_ranges  0x00000158       0x40 ./main.o
 .debug_ranges  0x00000198       0x40 ./startup_tm4c_gnu.o
 .debug_ranges  0x000001d8       0x38 ./uartstdio.o
 .debug_ranges  0x00000210       0x60 ./src/sc_timer_service.o
 .debug_ranges  0x00000270      0x4f0 ./src-gen/indM.o

.debug_line     0x00000000     0x47e1
 .debug_line    0x00000000      0x264 ./Control_Res.o
 .debug_line    0x00000264      0x275 ./Local_Average.o
 .debug_line    0x000004d9      0x2a7 ./bsp.o
 .debug_line    0x00000780      0x339 ./indM_control_and_RCalculation.o
 .debug_line    0x00000ab9      0x357 ./indM_data_Processing.o
 .debug_line    0x00000e10      0x2f4 ./indM_get_Data.o
 .debug_line    0x00001104      0x304 ./indM_get_Data_Array.o
 .debug_line    0x00001408      0x2fa ./indM_normal_Close.o
 .debug_line    0x00001702      0x364 ./indM_port_configuration.o
 .debug_line    0x00001a66      0x303 ./indM_res_Closing.o
 .debug_line    0x00001d69      0x314 ./indM_res_Init.o
 .debug_line    0x0000207d      0x2fa ./indM_safe_Close.o
 .debug_line    0x00002377      0x2fd ./indM_set_Time_Reference.o
 .debug_line    0x00002674      0x33b ./indM_setting.o
 .debug_line    0x000029af      0x317 ./indM_uART_routine.o
 .debug_line    0x00002cc6      0x27d ./least_square.o
 .debug_line    0x00002f43      0x388 ./main.o
 .debug_line    0x000032cb       0xc8 ./startup_tm4c_gnu.o
 .debug_line    0x00003393      0x32d ./uartstdio.o
 .debug_line    0x000036c0      0x2b0 ./src/sc_timer_service.o
 .debug_line    0x00003970      0xe71 ./src-gen/indM.o

.debug_str      0x00000000     0x36fe
 .debug_str     0x00000000      0x5bd ./Control_Res.o
                                0x62a (size before relaxing)
 .debug_str     0x000005bd       0x4f ./Local_Average.o
                                0x665 (size before relaxing)
 .debug_str     0x0000060c       0xff ./bsp.o
                                0x72d (size before relaxing)
 .debug_str     0x0000070b      0x80e ./indM_control_and_RCalculation.o
                                0xeb9 (size before relaxing)
 .debug_str     0x00000f19       0xad ./indM_data_Processing.o
                                0xea1 (size before relaxing)
 .debug_str     0x00000fc6       0x21 ./indM_get_Data.o
                                0xddc (size before relaxing)
 .debug_str     0x00000fe7       0x3f ./indM_get_Data_Array.o
                                0xe23 (size before relaxing)
 .debug_str     0x00001026       0x37 ./indM_normal_Close.o
                                0xe0d (size before relaxing)
 .debug_str     0x0000105d      0x627 ./indM_port_configuration.o
                               0x140a (size before relaxing)
 .debug_str     0x00001684       0x31 ./indM_res_Closing.o
                                0xe49 (size before relaxing)
 .debug_str     0x000016b5       0x21 ./indM_res_Init.o
                                0xe62 (size before relaxing)
 .debug_str     0x000016d6       0x25 ./indM_safe_Close.o
                                0xe17 (size before relaxing)
 .debug_str     0x000016fb       0x35 ./indM_set_Time_Reference.o
                                0xdff (size before relaxing)
 .debug_str     0x00001730       0x5e ./indM_setting.o
                                0xe4d (size before relaxing)
 .debug_str     0x0000178e       0x31 ./indM_uART_routine.o
                                0xe26 (size before relaxing)
 .debug_str     0x000017bf       0x27 ./least_square.o
                                0x64f (size before relaxing)
 .debug_str     0x000017e6      0x129 ./main.o
                                0xfcf (size before relaxing)
 .debug_str     0x0000190f      0x118 ./startup_tm4c_gnu.o
                                0x239 (size before relaxing)
 .debug_str     0x00001a27      0x1d8 ./uartstdio.o
                                0x377 (size before relaxing)
 .debug_str     0x00001bff       0x8f ./src/sc_timer_service.o
                                0x704 (size before relaxing)
 .debug_str     0x00001c8e     0x1a70 ./src-gen/indM.o
                               0x2401 (size before relaxing)

.debug_frame    0x00000000     0x1328
 .debug_frame   0x00000000       0x20 ./Control_Res.o
 .debug_frame   0x00000020       0x34 ./Local_Average.o
 .debug_frame   0x00000054       0x40 ./bsp.o
 .debug_frame   0x00000094       0x2c ./indM_control_and_RCalculation.o
 .debug_frame   0x000000c0       0x34 ./indM_data_Processing.o
 .debug_frame   0x000000f4       0x2c ./indM_get_Data.o
 .debug_frame   0x00000120       0x30 ./indM_get_Data_Array.o
 .debug_frame   0x00000150       0x28 ./indM_normal_Close.o
 .debug_frame   0x00000178       0x3c ./indM_port_configuration.o
 .debug_frame   0x000001b4       0x28 ./indM_res_Closing.o
 .debug_frame   0x000001dc       0x2c ./indM_res_Init.o
 .debug_frame   0x00000208       0x2c ./indM_safe_Close.o
 .debug_frame   0x00000234       0x28 ./indM_set_Time_Reference.o
 .debug_frame   0x0000025c       0x30 ./indM_setting.o
 .debug_frame   0x0000028c       0x2c ./indM_uART_routine.o
 .debug_frame   0x000002b8       0x54 ./least_square.o
 .debug_frame   0x0000030c       0xbc ./main.o
 .debug_frame   0x000003c8       0x88 ./startup_tm4c_gnu.o
 .debug_frame   0x00000450       0xdc ./uartstdio.o
 .debug_frame   0x0000052c       0xa4 ./src/sc_timer_service.o
 .debug_frame   0x000005d0      0xd18 ./src-gen/indM.o
 .debug_frame   0x000012e8       0x20 c:/ti/ccsv8/tools/compiler/gcc-arm-none-eabi-7-2017-q4-major-win32/bin/../lib/gcc/arm-none-eabi/7.2.1/../../../../arm-none-eabi/lib/thumb/v7e-m/fpv4-sp/hard\libc.a(lib_a-errno.o)
 .debug_frame   0x00001308       0x20 c:/ti/ccsv8/tools/compiler/gcc-arm-none-eabi-7-2017-q4-major-win32/bin/../lib/gcc/arm-none-eabi/7.2.1/../../../../arm-none-eabi/lib/thumb/v7e-m/fpv4-sp/hard\libnosys.a(_exit.o)

.debug_loc      0x00000000     0x1de3
 .debug_loc     0x00000000       0x46 ./Local_Average.o
 .debug_loc     0x00000046       0x26 ./bsp.o
 .debug_loc     0x0000006c       0x8d ./indM_control_and_RCalculation.o
 .debug_loc     0x000000f9       0xdc ./indM_data_Processing.o
 .debug_loc     0x000001d5       0x13 ./indM_get_Data.o
 .debug_loc     0x000001e8       0x26 ./indM_get_Data_Array.o
 .debug_loc     0x0000020e       0x39 ./indM_normal_Close.o
 .debug_loc     0x00000247       0x31 ./indM_port_configuration.o
 .debug_loc     0x00000278       0x62 ./indM_res_Closing.o
 .debug_loc     0x000002da       0x6a ./indM_res_Init.o
 .debug_loc     0x00000344       0x13 ./indM_safe_Close.o
 .debug_loc     0x00000357       0x26 ./indM_set_Time_Reference.o
 .debug_loc     0x0000037d       0x4c ./indM_setting.o
 .debug_loc     0x000003c9       0x65 ./indM_uART_routine.o
 .debug_loc     0x0000042e       0x6f ./least_square.o
 .debug_loc     0x0000049d       0xfd ./main.o
 .debug_loc     0x0000059a       0x47 ./startup_tm4c_gnu.o
 .debug_loc     0x000005e1      0x311 ./uartstdio.o
 .debug_loc     0x000008f2      0x150 ./src/sc_timer_service.o
 .debug_loc     0x00000a42     0x13a1 ./src-gen/indM.o
